Archive member included to satisfy reference by file (symbol)

x:/quartus/18.1/nios2eds/bin/gnu/h-x86_64-mingw32/bin/../lib/gcc/nios2-elf/5.3.0\libgcc.a(lib2-divmod.o)
                              obj/default/i2c/i2c.o (__udivsi3)
x:/quartus/18.1/nios2eds/bin/gnu/h-x86_64-mingw32/bin/../lib/gcc/nios2-elf/5.3.0/../../../../../H-x86_64-mingw32/nios2-elf/lib\libc.a(lib_a-fclose.o)
                              obj/default/hello_world.o (fclose)
x:/quartus/18.1/nios2eds/bin/gnu/h-x86_64-mingw32/bin/../lib/gcc/nios2-elf/5.3.0/../../../../../H-x86_64-mingw32/nios2-elf/lib\libc.a(lib_a-fflush.o)
                              x:/quartus/18.1/nios2eds/bin/gnu/h-x86_64-mingw32/bin/../lib/gcc/nios2-elf/5.3.0/../../../../../H-x86_64-mingw32/nios2-elf/lib\libc.a(lib_a-fclose.o) (__sflush_r)
x:/quartus/18.1/nios2eds/bin/gnu/h-x86_64-mingw32/bin/../lib/gcc/nios2-elf/5.3.0/../../../../../H-x86_64-mingw32/nios2-elf/lib\libc.a(lib_a-findfp.o)
                              x:/quartus/18.1/nios2eds/bin/gnu/h-x86_64-mingw32/bin/../lib/gcc/nios2-elf/5.3.0/../../../../../H-x86_64-mingw32/nios2-elf/lib\libc.a(lib_a-fclose.o) (__sinit)
x:/quartus/18.1/nios2eds/bin/gnu/h-x86_64-mingw32/bin/../lib/gcc/nios2-elf/5.3.0/../../../../../H-x86_64-mingw32/nios2-elf/lib\libc.a(lib_a-fopen.o)
                              obj/default/hello_world.o (fopen)
x:/quartus/18.1/nios2eds/bin/gnu/h-x86_64-mingw32/bin/../lib/gcc/nios2-elf/5.3.0/../../../../../H-x86_64-mingw32/nios2-elf/lib\libc.a(lib_a-fprintf.o)
                              obj/default/hello_world.o (fprintf)
x:/quartus/18.1/nios2eds/bin/gnu/h-x86_64-mingw32/bin/../lib/gcc/nios2-elf/5.3.0/../../../../../H-x86_64-mingw32/nios2-elf/lib\libc.a(lib_a-fputc.o)
                              obj/default/hello_world.o (fputc)
x:/quartus/18.1/nios2eds/bin/gnu/h-x86_64-mingw32/bin/../lib/gcc/nios2-elf/5.3.0/../../../../../H-x86_64-mingw32/nios2-elf/lib\libc.a(lib_a-freer.o)
                              x:/quartus/18.1/nios2eds/bin/gnu/h-x86_64-mingw32/bin/../lib/gcc/nios2-elf/5.3.0/../../../../../H-x86_64-mingw32/nios2-elf/lib\libc.a(lib_a-fclose.o) (_free_r)
x:/quartus/18.1/nios2eds/bin/gnu/h-x86_64-mingw32/bin/../lib/gcc/nios2-elf/5.3.0/../../../../../H-x86_64-mingw32/nios2-elf/lib\libc.a(lib_a-fseek.o)
                              x:/quartus/18.1/nios2eds/bin/gnu/h-x86_64-mingw32/bin/../lib/gcc/nios2-elf/5.3.0/../../../../../H-x86_64-mingw32/nios2-elf/lib\libc.a(lib_a-fopen.o) (_fseek_r)
x:/quartus/18.1/nios2eds/bin/gnu/h-x86_64-mingw32/bin/../lib/gcc/nios2-elf/5.3.0/../../../../../H-x86_64-mingw32/nios2-elf/lib\libc.a(lib_a-fseeko.o)
                              x:/quartus/18.1/nios2eds/bin/gnu/h-x86_64-mingw32/bin/../lib/gcc/nios2-elf/5.3.0/../../../../../H-x86_64-mingw32/nios2-elf/lib\libc.a(lib_a-fseek.o) (_fseeko_r)
x:/quartus/18.1/nios2eds/bin/gnu/h-x86_64-mingw32/bin/../lib/gcc/nios2-elf/5.3.0/../../../../../H-x86_64-mingw32/nios2-elf/lib\libc.a(lib_a-fstatr.o)
                              x:/quartus/18.1/nios2eds/bin/gnu/h-x86_64-mingw32/bin/../lib/gcc/nios2-elf/5.3.0/../../../../../H-x86_64-mingw32/nios2-elf/lib\libc.a(lib_a-fseeko.o) (_fstat_r)
x:/quartus/18.1/nios2eds/bin/gnu/h-x86_64-mingw32/bin/../lib/gcc/nios2-elf/5.3.0/../../../../../H-x86_64-mingw32/nios2-elf/lib\libc.a(lib_a-fwalk.o)
                              x:/quartus/18.1/nios2eds/bin/gnu/h-x86_64-mingw32/bin/../lib/gcc/nios2-elf/5.3.0/../../../../../H-x86_64-mingw32/nios2-elf/lib\libc.a(lib_a-findfp.o) (_fwalk)
x:/quartus/18.1/nios2eds/bin/gnu/h-x86_64-mingw32/bin/../lib/gcc/nios2-elf/5.3.0/../../../../../H-x86_64-mingw32/nios2-elf/lib\libc.a(lib_a-impure.o)
                              x:/quartus/18.1/nios2eds/bin/gnu/h-x86_64-mingw32/bin/../lib/gcc/nios2-elf/5.3.0/../../../../../H-x86_64-mingw32/nios2-elf/lib\libc.a(lib_a-fflush.o) (_global_impure_ptr)
x:/quartus/18.1/nios2eds/bin/gnu/h-x86_64-mingw32/bin/../lib/gcc/nios2-elf/5.3.0/../../../../../H-x86_64-mingw32/nios2-elf/lib\libc.a(lib_a-int_errno.o)
                              x:/quartus/18.1/nios2eds/bin/gnu/h-x86_64-mingw32/bin/../lib/gcc/nios2-elf/5.3.0/../../../../../H-x86_64-mingw32/nios2-elf/lib\libc.a(lib_a-fstatr.o) (errno)
x:/quartus/18.1/nios2eds/bin/gnu/h-x86_64-mingw32/bin/../lib/gcc/nios2-elf/5.3.0/../../../../../H-x86_64-mingw32/nios2-elf/lib\libc.a(lib_a-makebuf.o)
                              x:/quartus/18.1/nios2eds/bin/gnu/h-x86_64-mingw32/bin/../lib/gcc/nios2-elf/5.3.0/../../../../../H-x86_64-mingw32/nios2-elf/lib\libc.a(lib_a-fseeko.o) (__smakebuf_r)
x:/quartus/18.1/nios2eds/bin/gnu/h-x86_64-mingw32/bin/../lib/gcc/nios2-elf/5.3.0/../../../../../H-x86_64-mingw32/nios2-elf/lib\libc.a(lib_a-mallocr.o)
                              x:/quartus/18.1/nios2eds/bin/gnu/h-x86_64-mingw32/bin/../lib/gcc/nios2-elf/5.3.0/../../../../../H-x86_64-mingw32/nios2-elf/lib\libc.a(lib_a-findfp.o) (_malloc_r)
x:/quartus/18.1/nios2eds/bin/gnu/h-x86_64-mingw32/bin/../lib/gcc/nios2-elf/5.3.0/../../../../../H-x86_64-mingw32/nios2-elf/lib\libc.a(lib_a-memset.o)
                              x:/quartus/18.1/nios2eds/bin/gnu/h-x86_64-mingw32/bin/../lib/gcc/nios2-elf/5.3.0/../../../../../H-x86_64-mingw32/nios2-elf/lib\libc.a(lib_a-findfp.o) (memset)
x:/quartus/18.1/nios2eds/bin/gnu/h-x86_64-mingw32/bin/../lib/gcc/nios2-elf/5.3.0/../../../../../H-x86_64-mingw32/nios2-elf/lib\libc.a(lib_a-openr.o)
                              x:/quartus/18.1/nios2eds/bin/gnu/h-x86_64-mingw32/bin/../lib/gcc/nios2-elf/5.3.0/../../../../../H-x86_64-mingw32/nios2-elf/lib\libc.a(lib_a-fopen.o) (_open_r)
x:/quartus/18.1/nios2eds/bin/gnu/h-x86_64-mingw32/bin/../lib/gcc/nios2-elf/5.3.0/../../../../../H-x86_64-mingw32/nios2-elf/lib\libc.a(lib_a-printf.o)
                              obj/default/hello_world.o (printf)
x:/quartus/18.1/nios2eds/bin/gnu/h-x86_64-mingw32/bin/../lib/gcc/nios2-elf/5.3.0/../../../../../H-x86_64-mingw32/nios2-elf/lib\libc.a(lib_a-putc.o)
                              x:/quartus/18.1/nios2eds/bin/gnu/h-x86_64-mingw32/bin/../lib/gcc/nios2-elf/5.3.0/../../../../../H-x86_64-mingw32/nios2-elf/lib\libc.a(lib_a-fputc.o) (_putc_r)
x:/quartus/18.1/nios2eds/bin/gnu/h-x86_64-mingw32/bin/../lib/gcc/nios2-elf/5.3.0/../../../../../H-x86_64-mingw32/nios2-elf/lib\libc.a(lib_a-puts.o)
                              obj/default/hello_world.o (puts)
x:/quartus/18.1/nios2eds/bin/gnu/h-x86_64-mingw32/bin/../lib/gcc/nios2-elf/5.3.0/../../../../../H-x86_64-mingw32/nios2-elf/lib\libc.a(lib_a-refill.o)
                              x:/quartus/18.1/nios2eds/bin/gnu/h-x86_64-mingw32/bin/../lib/gcc/nios2-elf/5.3.0/../../../../../H-x86_64-mingw32/nios2-elf/lib\libc.a(lib_a-fseeko.o) (__srefill_r)
x:/quartus/18.1/nios2eds/bin/gnu/h-x86_64-mingw32/bin/../lib/gcc/nios2-elf/5.3.0/../../../../../H-x86_64-mingw32/nios2-elf/lib\libc.a(lib_a-rewind.o)
                              obj/default/hello_world.o (rewind)
x:/quartus/18.1/nios2eds/bin/gnu/h-x86_64-mingw32/bin/../lib/gcc/nios2-elf/5.3.0/../../../../../H-x86_64-mingw32/nios2-elf/lib\libc.a(lib_a-sbrkr.o)
                              x:/quartus/18.1/nios2eds/bin/gnu/h-x86_64-mingw32/bin/../lib/gcc/nios2-elf/5.3.0/../../../../../H-x86_64-mingw32/nios2-elf/lib\libc.a(lib_a-freer.o) (_sbrk_r)
x:/quartus/18.1/nios2eds/bin/gnu/h-x86_64-mingw32/bin/../lib/gcc/nios2-elf/5.3.0/../../../../../H-x86_64-mingw32/nios2-elf/lib\libc.a(lib_a-stdio.o)
                              x:/quartus/18.1/nios2eds/bin/gnu/h-x86_64-mingw32/bin/../lib/gcc/nios2-elf/5.3.0/../../../../../H-x86_64-mingw32/nios2-elf/lib\libc.a(lib_a-findfp.o) (__sread)
x:/quartus/18.1/nios2eds/bin/gnu/h-x86_64-mingw32/bin/../lib/gcc/nios2-elf/5.3.0/../../../../../H-x86_64-mingw32/nios2-elf/lib\libc.a(lib_a-strlen.o)
                              x:/quartus/18.1/nios2eds/bin/gnu/h-x86_64-mingw32/bin/../lib/gcc/nios2-elf/5.3.0/../../../../../H-x86_64-mingw32/nios2-elf/lib\libc.a(lib_a-puts.o) (strlen)
x:/quartus/18.1/nios2eds/bin/gnu/h-x86_64-mingw32/bin/../lib/gcc/nios2-elf/5.3.0/../../../../../H-x86_64-mingw32/nios2-elf/lib\libc.a(lib_a-vfprintf.o)
                              x:/quartus/18.1/nios2eds/bin/gnu/h-x86_64-mingw32/bin/../lib/gcc/nios2-elf/5.3.0/../../../../../H-x86_64-mingw32/nios2-elf/lib\libc.a(lib_a-printf.o) (___vfprintf_internal_r)
x:/quartus/18.1/nios2eds/bin/gnu/h-x86_64-mingw32/bin/../lib/gcc/nios2-elf/5.3.0/../../../../../H-x86_64-mingw32/nios2-elf/lib\libc.a(lib_a-wbuf.o)
                              x:/quartus/18.1/nios2eds/bin/gnu/h-x86_64-mingw32/bin/../lib/gcc/nios2-elf/5.3.0/../../../../../H-x86_64-mingw32/nios2-elf/lib\libc.a(lib_a-putc.o) (__swbuf_r)
x:/quartus/18.1/nios2eds/bin/gnu/h-x86_64-mingw32/bin/../lib/gcc/nios2-elf/5.3.0/../../../../../H-x86_64-mingw32/nios2-elf/lib\libc.a(lib_a-writer.o)
                              x:/quartus/18.1/nios2eds/bin/gnu/h-x86_64-mingw32/bin/../lib/gcc/nios2-elf/5.3.0/../../../../../H-x86_64-mingw32/nios2-elf/lib\libc.a(lib_a-stdio.o) (_write_r)
x:/quartus/18.1/nios2eds/bin/gnu/h-x86_64-mingw32/bin/../lib/gcc/nios2-elf/5.3.0/../../../../../H-x86_64-mingw32/nios2-elf/lib\libc.a(lib_a-wsetup.o)
                              x:/quartus/18.1/nios2eds/bin/gnu/h-x86_64-mingw32/bin/../lib/gcc/nios2-elf/5.3.0/../../../../../H-x86_64-mingw32/nios2-elf/lib\libc.a(lib_a-vfprintf.o) (__swsetup_r)
x:/quartus/18.1/nios2eds/bin/gnu/h-x86_64-mingw32/bin/../lib/gcc/nios2-elf/5.3.0/../../../../../H-x86_64-mingw32/nios2-elf/lib\libc.a(closer.o)
                              x:/quartus/18.1/nios2eds/bin/gnu/h-x86_64-mingw32/bin/../lib/gcc/nios2-elf/5.3.0/../../../../../H-x86_64-mingw32/nios2-elf/lib\libc.a(lib_a-stdio.o) (_close_r)
x:/quartus/18.1/nios2eds/bin/gnu/h-x86_64-mingw32/bin/../lib/gcc/nios2-elf/5.3.0/../../../../../H-x86_64-mingw32/nios2-elf/lib\libc.a(lib_a-dtoa.o)
                              x:/quartus/18.1/nios2eds/bin/gnu/h-x86_64-mingw32/bin/../lib/gcc/nios2-elf/5.3.0/../../../../../H-x86_64-mingw32/nios2-elf/lib\libc.a(lib_a-vfprintf.o) (_dtoa_r)
x:/quartus/18.1/nios2eds/bin/gnu/h-x86_64-mingw32/bin/../lib/gcc/nios2-elf/5.3.0/../../../../../H-x86_64-mingw32/nios2-elf/lib\libc.a(lib_a-flags.o)
                              x:/quartus/18.1/nios2eds/bin/gnu/h-x86_64-mingw32/bin/../lib/gcc/nios2-elf/5.3.0/../../../../../H-x86_64-mingw32/nios2-elf/lib\libc.a(lib_a-fopen.o) (__sflags)
x:/quartus/18.1/nios2eds/bin/gnu/h-x86_64-mingw32/bin/../lib/gcc/nios2-elf/5.3.0/../../../../../H-x86_64-mingw32/nios2-elf/lib\libc.a(lib_a-fvwrite.o)
                              x:/quartus/18.1/nios2eds/bin/gnu/h-x86_64-mingw32/bin/../lib/gcc/nios2-elf/5.3.0/../../../../../H-x86_64-mingw32/nios2-elf/lib\libc.a(lib_a-puts.o) (__sfvwrite_r)
x:/quartus/18.1/nios2eds/bin/gnu/h-x86_64-mingw32/bin/../lib/gcc/nios2-elf/5.3.0/../../../../../H-x86_64-mingw32/nios2-elf/lib\libc.a(lib_a-isattyr.o)
                              x:/quartus/18.1/nios2eds/bin/gnu/h-x86_64-mingw32/bin/../lib/gcc/nios2-elf/5.3.0/../../../../../H-x86_64-mingw32/nios2-elf/lib\libc.a(lib_a-makebuf.o) (_isatty_r)
x:/quartus/18.1/nios2eds/bin/gnu/h-x86_64-mingw32/bin/../lib/gcc/nios2-elf/5.3.0/../../../../../H-x86_64-mingw32/nios2-elf/lib\libc.a(lib_a-locale.o)
                              x:/quartus/18.1/nios2eds/bin/gnu/h-x86_64-mingw32/bin/../lib/gcc/nios2-elf/5.3.0/../../../../../H-x86_64-mingw32/nios2-elf/lib\libc.a(lib_a-vfprintf.o) (_localeconv_r)
x:/quartus/18.1/nios2eds/bin/gnu/h-x86_64-mingw32/bin/../lib/gcc/nios2-elf/5.3.0/../../../../../H-x86_64-mingw32/nios2-elf/lib\libc.a(lib_a-lseekr.o)
                              x:/quartus/18.1/nios2eds/bin/gnu/h-x86_64-mingw32/bin/../lib/gcc/nios2-elf/5.3.0/../../../../../H-x86_64-mingw32/nios2-elf/lib\libc.a(lib_a-stdio.o) (_lseek_r)
x:/quartus/18.1/nios2eds/bin/gnu/h-x86_64-mingw32/bin/../lib/gcc/nios2-elf/5.3.0/../../../../../H-x86_64-mingw32/nios2-elf/lib\libc.a(lib_a-memchr.o)
                              x:/quartus/18.1/nios2eds/bin/gnu/h-x86_64-mingw32/bin/../lib/gcc/nios2-elf/5.3.0/../../../../../H-x86_64-mingw32/nios2-elf/lib\libc.a(lib_a-vfprintf.o) (memchr)
x:/quartus/18.1/nios2eds/bin/gnu/h-x86_64-mingw32/bin/../lib/gcc/nios2-elf/5.3.0/../../../../../H-x86_64-mingw32/nios2-elf/lib\libc.a(lib_a-memcpy.o)
                              x:/quartus/18.1/nios2eds/bin/gnu/h-x86_64-mingw32/bin/../lib/gcc/nios2-elf/5.3.0/../../../../../H-x86_64-mingw32/nios2-elf/lib\libc.a(lib_a-dtoa.o) (memcpy)
x:/quartus/18.1/nios2eds/bin/gnu/h-x86_64-mingw32/bin/../lib/gcc/nios2-elf/5.3.0/../../../../../H-x86_64-mingw32/nios2-elf/lib\libc.a(lib_a-memmove.o)
                              x:/quartus/18.1/nios2eds/bin/gnu/h-x86_64-mingw32/bin/../lib/gcc/nios2-elf/5.3.0/../../../../../H-x86_64-mingw32/nios2-elf/lib\libc.a(lib_a-fvwrite.o) (memmove)
x:/quartus/18.1/nios2eds/bin/gnu/h-x86_64-mingw32/bin/../lib/gcc/nios2-elf/5.3.0/../../../../../H-x86_64-mingw32/nios2-elf/lib\libc.a(lib_a-mprec.o)
                              x:/quartus/18.1/nios2eds/bin/gnu/h-x86_64-mingw32/bin/../lib/gcc/nios2-elf/5.3.0/../../../../../H-x86_64-mingw32/nios2-elf/lib\libc.a(lib_a-dtoa.o) (_Balloc)
x:/quartus/18.1/nios2eds/bin/gnu/h-x86_64-mingw32/bin/../lib/gcc/nios2-elf/5.3.0/../../../../../H-x86_64-mingw32/nios2-elf/lib\libc.a(lib_a-readr.o)
                              x:/quartus/18.1/nios2eds/bin/gnu/h-x86_64-mingw32/bin/../lib/gcc/nios2-elf/5.3.0/../../../../../H-x86_64-mingw32/nios2-elf/lib\libc.a(lib_a-stdio.o) (_read_r)
x:/quartus/18.1/nios2eds/bin/gnu/h-x86_64-mingw32/bin/../lib/gcc/nios2-elf/5.3.0/../../../../../H-x86_64-mingw32/nios2-elf/lib\libc.a(lib_a-reallocr.o)
                              x:/quartus/18.1/nios2eds/bin/gnu/h-x86_64-mingw32/bin/../lib/gcc/nios2-elf/5.3.0/../../../../../H-x86_64-mingw32/nios2-elf/lib\libc.a(lib_a-fvwrite.o) (_realloc_r)
x:/quartus/18.1/nios2eds/bin/gnu/h-x86_64-mingw32/bin/../lib/gcc/nios2-elf/5.3.0/../../../../../H-x86_64-mingw32/nios2-elf/lib\libc.a(lib_a-s_fpclassify.o)
                              x:/quartus/18.1/nios2eds/bin/gnu/h-x86_64-mingw32/bin/../lib/gcc/nios2-elf/5.3.0/../../../../../H-x86_64-mingw32/nios2-elf/lib\libc.a(lib_a-vfprintf.o) (__fpclassifyd)
x:/quartus/18.1/nios2eds/bin/gnu/h-x86_64-mingw32/bin/../lib/gcc/nios2-elf/5.3.0/../../../../../H-x86_64-mingw32/nios2-elf/lib\libc.a(lib_a-strcmp.o)
                              x:/quartus/18.1/nios2eds/bin/gnu/h-x86_64-mingw32/bin/../lib/gcc/nios2-elf/5.3.0/../../../../../H-x86_64-mingw32/nios2-elf/lib\libc.a(lib_a-locale.o) (strcmp)
x:/quartus/18.1/nios2eds/bin/gnu/h-x86_64-mingw32/bin/../lib/gcc/nios2-elf/5.3.0/../../../../../H-x86_64-mingw32/nios2-elf/lib\libc.a(lib_a-vfiprintf.o)
                              x:/quartus/18.1/nios2eds/bin/gnu/h-x86_64-mingw32/bin/../lib/gcc/nios2-elf/5.3.0/../../../../../H-x86_64-mingw32/nios2-elf/lib\libc.a(lib_a-vfprintf.o) (__sprint_r)
x:/quartus/18.1/nios2eds/bin/gnu/h-x86_64-mingw32/bin/../lib/gcc/nios2-elf/5.3.0/../../../../../H-x86_64-mingw32/nios2-elf/lib\libc.a(lib_a-callocr.o)
                              x:/quartus/18.1/nios2eds/bin/gnu/h-x86_64-mingw32/bin/../lib/gcc/nios2-elf/5.3.0/../../../../../H-x86_64-mingw32/nios2-elf/lib\libc.a(lib_a-mprec.o) (_calloc_r)
x:/quartus/18.1/nios2eds/bin/gnu/h-x86_64-mingw32/bin/../lib/gcc/nios2-elf/5.3.0/../../../../../H-x86_64-mingw32/nios2-elf/lib\libc.a(lib_a-fputwc.o)
                              x:/quartus/18.1/nios2eds/bin/gnu/h-x86_64-mingw32/bin/../lib/gcc/nios2-elf/5.3.0/../../../../../H-x86_64-mingw32/nios2-elf/lib\libc.a(lib_a-vfiprintf.o) (_fputwc_r)
x:/quartus/18.1/nios2eds/bin/gnu/h-x86_64-mingw32/bin/../lib/gcc/nios2-elf/5.3.0/../../../../../H-x86_64-mingw32/nios2-elf/lib\libc.a(lib_a-wcrtomb.o)
                              x:/quartus/18.1/nios2eds/bin/gnu/h-x86_64-mingw32/bin/../lib/gcc/nios2-elf/5.3.0/../../../../../H-x86_64-mingw32/nios2-elf/lib\libc.a(lib_a-fputwc.o) (_wcrtomb_r)
x:/quartus/18.1/nios2eds/bin/gnu/h-x86_64-mingw32/bin/../lib/gcc/nios2-elf/5.3.0/../../../../../H-x86_64-mingw32/nios2-elf/lib\libc.a(lib_a-wctomb_r.o)
                              x:/quartus/18.1/nios2eds/bin/gnu/h-x86_64-mingw32/bin/../lib/gcc/nios2-elf/5.3.0/../../../../../H-x86_64-mingw32/nios2-elf/lib\libc.a(lib_a-wcrtomb.o) (__wctomb)
x:/quartus/18.1/nios2eds/bin/gnu/h-x86_64-mingw32/bin/../lib/gcc/nios2-elf/5.3.0\libgcc.a(_udivdi3.o)
                              x:/quartus/18.1/nios2eds/bin/gnu/h-x86_64-mingw32/bin/../lib/gcc/nios2-elf/5.3.0/../../../../../H-x86_64-mingw32/nios2-elf/lib\libc.a(lib_a-vfprintf.o) (__udivdi3)
x:/quartus/18.1/nios2eds/bin/gnu/h-x86_64-mingw32/bin/../lib/gcc/nios2-elf/5.3.0\libgcc.a(_umoddi3.o)
                              x:/quartus/18.1/nios2eds/bin/gnu/h-x86_64-mingw32/bin/../lib/gcc/nios2-elf/5.3.0/../../../../../H-x86_64-mingw32/nios2-elf/lib\libc.a(lib_a-vfprintf.o) (__umoddi3)
x:/quartus/18.1/nios2eds/bin/gnu/h-x86_64-mingw32/bin/../lib/gcc/nios2-elf/5.3.0\libgcc.a(adddf3.o)
                              x:/quartus/18.1/nios2eds/bin/gnu/h-x86_64-mingw32/bin/../lib/gcc/nios2-elf/5.3.0/../../../../../H-x86_64-mingw32/nios2-elf/lib\libc.a(lib_a-dtoa.o) (__adddf3)
x:/quartus/18.1/nios2eds/bin/gnu/h-x86_64-mingw32/bin/../lib/gcc/nios2-elf/5.3.0\libgcc.a(divdf3.o)
                              x:/quartus/18.1/nios2eds/bin/gnu/h-x86_64-mingw32/bin/../lib/gcc/nios2-elf/5.3.0/../../../../../H-x86_64-mingw32/nios2-elf/lib\libc.a(lib_a-dtoa.o) (__divdf3)
x:/quartus/18.1/nios2eds/bin/gnu/h-x86_64-mingw32/bin/../lib/gcc/nios2-elf/5.3.0\libgcc.a(eqdf2.o)
                              x:/quartus/18.1/nios2eds/bin/gnu/h-x86_64-mingw32/bin/../lib/gcc/nios2-elf/5.3.0/../../../../../H-x86_64-mingw32/nios2-elf/lib\libc.a(lib_a-vfprintf.o) (__eqdf2)
x:/quartus/18.1/nios2eds/bin/gnu/h-x86_64-mingw32/bin/../lib/gcc/nios2-elf/5.3.0\libgcc.a(gedf2.o)
                              x:/quartus/18.1/nios2eds/bin/gnu/h-x86_64-mingw32/bin/../lib/gcc/nios2-elf/5.3.0/../../../../../H-x86_64-mingw32/nios2-elf/lib\libc.a(lib_a-dtoa.o) (__gedf2)
x:/quartus/18.1/nios2eds/bin/gnu/h-x86_64-mingw32/bin/../lib/gcc/nios2-elf/5.3.0\libgcc.a(ledf2.o)
                              x:/quartus/18.1/nios2eds/bin/gnu/h-x86_64-mingw32/bin/../lib/gcc/nios2-elf/5.3.0/../../../../../H-x86_64-mingw32/nios2-elf/lib\libc.a(lib_a-vfprintf.o) (__ltdf2)
x:/quartus/18.1/nios2eds/bin/gnu/h-x86_64-mingw32/bin/../lib/gcc/nios2-elf/5.3.0\libgcc.a(muldf3.o)
                              x:/quartus/18.1/nios2eds/bin/gnu/h-x86_64-mingw32/bin/../lib/gcc/nios2-elf/5.3.0/../../../../../H-x86_64-mingw32/nios2-elf/lib\libc.a(lib_a-dtoa.o) (__muldf3)
x:/quartus/18.1/nios2eds/bin/gnu/h-x86_64-mingw32/bin/../lib/gcc/nios2-elf/5.3.0\libgcc.a(subdf3.o)
                              x:/quartus/18.1/nios2eds/bin/gnu/h-x86_64-mingw32/bin/../lib/gcc/nios2-elf/5.3.0/../../../../../H-x86_64-mingw32/nios2-elf/lib\libc.a(lib_a-dtoa.o) (__subdf3)
x:/quartus/18.1/nios2eds/bin/gnu/h-x86_64-mingw32/bin/../lib/gcc/nios2-elf/5.3.0\libgcc.a(fixdfsi.o)
                              x:/quartus/18.1/nios2eds/bin/gnu/h-x86_64-mingw32/bin/../lib/gcc/nios2-elf/5.3.0/../../../../../H-x86_64-mingw32/nios2-elf/lib\libc.a(lib_a-dtoa.o) (__fixdfsi)
x:/quartus/18.1/nios2eds/bin/gnu/h-x86_64-mingw32/bin/../lib/gcc/nios2-elf/5.3.0\libgcc.a(floatsidf.o)
                              x:/quartus/18.1/nios2eds/bin/gnu/h-x86_64-mingw32/bin/../lib/gcc/nios2-elf/5.3.0/../../../../../H-x86_64-mingw32/nios2-elf/lib\libc.a(lib_a-dtoa.o) (__floatsidf)
x:/quartus/18.1/nios2eds/bin/gnu/h-x86_64-mingw32/bin/../lib/gcc/nios2-elf/5.3.0\libgcc.a(floatunsidf.o)
                              x:/quartus/18.1/nios2eds/bin/gnu/h-x86_64-mingw32/bin/../lib/gcc/nios2-elf/5.3.0/../../../../../H-x86_64-mingw32/nios2-elf/lib\libc.a(lib_a-dtoa.o) (__floatunsidf)
x:/quartus/18.1/nios2eds/bin/gnu/h-x86_64-mingw32/bin/../lib/gcc/nios2-elf/5.3.0\libgcc.a(_clz.o)
                              x:/quartus/18.1/nios2eds/bin/gnu/h-x86_64-mingw32/bin/../lib/gcc/nios2-elf/5.3.0\libgcc.a(_udivdi3.o) (__clz_tab)
x:/quartus/18.1/nios2eds/bin/gnu/h-x86_64-mingw32/bin/../lib/gcc/nios2-elf/5.3.0\libgcc.a(_clzsi2.o)
                              x:/quartus/18.1/nios2eds/bin/gnu/h-x86_64-mingw32/bin/../lib/gcc/nios2-elf/5.3.0\libgcc.a(adddf3.o) (__clzsi2)
C:/Users/test/Documents/EPFL/MA1/Embedded/Lab4/lab_4_V2/sw/lab4_cam1_bsp/\libhal_bsp.a(alt_close.o)
                              x:/quartus/18.1/nios2eds/bin/gnu/h-x86_64-mingw32/bin/../lib/gcc/nios2-elf/5.3.0/../../../../../H-x86_64-mingw32/nios2-elf/lib\libc.a(closer.o) (close)
C:/Users/test/Documents/EPFL/MA1/Embedded/Lab4/lab_4_V2/sw/lab4_cam1_bsp/\libhal_bsp.a(alt_dev.o)
                              C:/Users/test/Documents/EPFL/MA1/Embedded/Lab4/lab_4_V2/sw/lab4_cam1_bsp/\libhal_bsp.a(alt_close.o) (alt_fd_list)
C:/Users/test/Documents/EPFL/MA1/Embedded/Lab4/lab_4_V2/sw/lab4_cam1_bsp/\libhal_bsp.a(alt_errno.o)
                              C:/Users/test/Documents/EPFL/MA1/Embedded/Lab4/lab_4_V2/sw/lab4_cam1_bsp/\libhal_bsp.a(alt_close.o) (alt_errno)
C:/Users/test/Documents/EPFL/MA1/Embedded/Lab4/lab_4_V2/sw/lab4_cam1_bsp/\libhal_bsp.a(alt_fstat.o)
                              x:/quartus/18.1/nios2eds/bin/gnu/h-x86_64-mingw32/bin/../lib/gcc/nios2-elf/5.3.0/../../../../../H-x86_64-mingw32/nios2-elf/lib\libc.a(lib_a-fstatr.o) (fstat)
C:/Users/test/Documents/EPFL/MA1/Embedded/Lab4/lab_4_V2/sw/lab4_cam1_bsp/\libhal_bsp.a(alt_isatty.o)
                              x:/quartus/18.1/nios2eds/bin/gnu/h-x86_64-mingw32/bin/../lib/gcc/nios2-elf/5.3.0/../../../../../H-x86_64-mingw32/nios2-elf/lib\libc.a(lib_a-isattyr.o) (isatty)
C:/Users/test/Documents/EPFL/MA1/Embedded/Lab4/lab_4_V2/sw/lab4_cam1_bsp/\libhal_bsp.a(alt_load.o)
                              C:/Users/test/Documents/EPFL/MA1/Embedded/Lab4/lab_4_V2/sw/lab4_cam1_bsp//obj/HAL/src/crt0.o (alt_load)
C:/Users/test/Documents/EPFL/MA1/Embedded/Lab4/lab_4_V2/sw/lab4_cam1_bsp/\libhal_bsp.a(alt_lseek.o)
                              x:/quartus/18.1/nios2eds/bin/gnu/h-x86_64-mingw32/bin/../lib/gcc/nios2-elf/5.3.0/../../../../../H-x86_64-mingw32/nios2-elf/lib\libc.a(lib_a-lseekr.o) (lseek)
C:/Users/test/Documents/EPFL/MA1/Embedded/Lab4/lab_4_V2/sw/lab4_cam1_bsp/\libhal_bsp.a(alt_main.o)
                              C:/Users/test/Documents/EPFL/MA1/Embedded/Lab4/lab_4_V2/sw/lab4_cam1_bsp//obj/HAL/src/crt0.o (alt_main)
C:/Users/test/Documents/EPFL/MA1/Embedded/Lab4/lab_4_V2/sw/lab4_cam1_bsp/\libhal_bsp.a(alt_malloc_lock.o)
                              x:/quartus/18.1/nios2eds/bin/gnu/h-x86_64-mingw32/bin/../lib/gcc/nios2-elf/5.3.0/../../../../../H-x86_64-mingw32/nios2-elf/lib\libc.a(lib_a-freer.o) (__malloc_lock)
C:/Users/test/Documents/EPFL/MA1/Embedded/Lab4/lab_4_V2/sw/lab4_cam1_bsp/\libhal_bsp.a(alt_open.o)
                              x:/quartus/18.1/nios2eds/bin/gnu/h-x86_64-mingw32/bin/../lib/gcc/nios2-elf/5.3.0/../../../../../H-x86_64-mingw32/nios2-elf/lib\libc.a(lib_a-openr.o) (open)
C:/Users/test/Documents/EPFL/MA1/Embedded/Lab4/lab_4_V2/sw/lab4_cam1_bsp/\libhal_bsp.a(alt_read.o)
                              x:/quartus/18.1/nios2eds/bin/gnu/h-x86_64-mingw32/bin/../lib/gcc/nios2-elf/5.3.0/../../../../../H-x86_64-mingw32/nios2-elf/lib\libc.a(lib_a-readr.o) (read)
C:/Users/test/Documents/EPFL/MA1/Embedded/Lab4/lab_4_V2/sw/lab4_cam1_bsp/\libhal_bsp.a(alt_release_fd.o)
                              C:/Users/test/Documents/EPFL/MA1/Embedded/Lab4/lab_4_V2/sw/lab4_cam1_bsp/\libhal_bsp.a(alt_close.o) (alt_release_fd)
C:/Users/test/Documents/EPFL/MA1/Embedded/Lab4/lab_4_V2/sw/lab4_cam1_bsp/\libhal_bsp.a(alt_sbrk.o)
                              x:/quartus/18.1/nios2eds/bin/gnu/h-x86_64-mingw32/bin/../lib/gcc/nios2-elf/5.3.0/../../../../../H-x86_64-mingw32/nios2-elf/lib\libc.a(lib_a-sbrkr.o) (sbrk)
C:/Users/test/Documents/EPFL/MA1/Embedded/Lab4/lab_4_V2/sw/lab4_cam1_bsp/\libhal_bsp.a(alt_usleep.o)
                              obj/default/hello_world.o (usleep)
C:/Users/test/Documents/EPFL/MA1/Embedded/Lab4/lab_4_V2/sw/lab4_cam1_bsp/\libhal_bsp.a(alt_write.o)
                              x:/quartus/18.1/nios2eds/bin/gnu/h-x86_64-mingw32/bin/../lib/gcc/nios2-elf/5.3.0/../../../../../H-x86_64-mingw32/nios2-elf/lib\libc.a(lib_a-writer.o) (write)
C:/Users/test/Documents/EPFL/MA1/Embedded/Lab4/lab_4_V2/sw/lab4_cam1_bsp/\libhal_bsp.a(alt_sys_init.o)
                              C:/Users/test/Documents/EPFL/MA1/Embedded/Lab4/lab_4_V2/sw/lab4_cam1_bsp/\libhal_bsp.a(alt_main.o) (alt_irq_init)
C:/Users/test/Documents/EPFL/MA1/Embedded/Lab4/lab_4_V2/sw/lab4_cam1_bsp/\libhal_bsp.a(altera_avalon_jtag_uart_fd.o)
                              C:/Users/test/Documents/EPFL/MA1/Embedded/Lab4/lab_4_V2/sw/lab4_cam1_bsp/\libhal_bsp.a(alt_sys_init.o) (altera_avalon_jtag_uart_read_fd)
C:/Users/test/Documents/EPFL/MA1/Embedded/Lab4/lab_4_V2/sw/lab4_cam1_bsp/\libhal_bsp.a(altera_avalon_jtag_uart_init.o)
                              C:/Users/test/Documents/EPFL/MA1/Embedded/Lab4/lab_4_V2/sw/lab4_cam1_bsp/\libhal_bsp.a(alt_sys_init.o) (altera_avalon_jtag_uart_init)
C:/Users/test/Documents/EPFL/MA1/Embedded/Lab4/lab_4_V2/sw/lab4_cam1_bsp/\libhal_bsp.a(altera_avalon_jtag_uart_ioctl.o)
                              C:/Users/test/Documents/EPFL/MA1/Embedded/Lab4/lab_4_V2/sw/lab4_cam1_bsp/\libhal_bsp.a(altera_avalon_jtag_uart_fd.o) (altera_avalon_jtag_uart_ioctl)
C:/Users/test/Documents/EPFL/MA1/Embedded/Lab4/lab_4_V2/sw/lab4_cam1_bsp/\libhal_bsp.a(altera_avalon_jtag_uart_read.o)
                              C:/Users/test/Documents/EPFL/MA1/Embedded/Lab4/lab_4_V2/sw/lab4_cam1_bsp/\libhal_bsp.a(altera_avalon_jtag_uart_fd.o) (altera_avalon_jtag_uart_read)
C:/Users/test/Documents/EPFL/MA1/Embedded/Lab4/lab_4_V2/sw/lab4_cam1_bsp/\libhal_bsp.a(altera_avalon_jtag_uart_write.o)
                              C:/Users/test/Documents/EPFL/MA1/Embedded/Lab4/lab_4_V2/sw/lab4_cam1_bsp/\libhal_bsp.a(altera_avalon_jtag_uart_fd.o) (altera_avalon_jtag_uart_write)
C:/Users/test/Documents/EPFL/MA1/Embedded/Lab4/lab_4_V2/sw/lab4_cam1_bsp/\libhal_bsp.a(altera_hostfs.o)
                              C:/Users/test/Documents/EPFL/MA1/Embedded/Lab4/lab_4_V2/sw/lab4_cam1_bsp/\libhal_bsp.a(alt_sys_init.o) (alt_hostfs_open)
C:/Users/test/Documents/EPFL/MA1/Embedded/Lab4/lab_4_V2/sw/lab4_cam1_bsp/\libhal_bsp.a(alt_alarm_start.o)
                              C:/Users/test/Documents/EPFL/MA1/Embedded/Lab4/lab_4_V2/sw/lab4_cam1_bsp/\libhal_bsp.a(altera_avalon_jtag_uart_init.o) (alt_alarm_start)
C:/Users/test/Documents/EPFL/MA1/Embedded/Lab4/lab_4_V2/sw/lab4_cam1_bsp/\libhal_bsp.a(alt_busy_sleep.o)
                              C:/Users/test/Documents/EPFL/MA1/Embedded/Lab4/lab_4_V2/sw/lab4_cam1_bsp/\libhal_bsp.a(alt_usleep.o) (alt_busy_sleep)
C:/Users/test/Documents/EPFL/MA1/Embedded/Lab4/lab_4_V2/sw/lab4_cam1_bsp/\libhal_bsp.a(alt_dcache_flush_all.o)
                              C:/Users/test/Documents/EPFL/MA1/Embedded/Lab4/lab_4_V2/sw/lab4_cam1_bsp/\libhal_bsp.a(alt_load.o) (alt_dcache_flush_all)
C:/Users/test/Documents/EPFL/MA1/Embedded/Lab4/lab_4_V2/sw/lab4_cam1_bsp/\libhal_bsp.a(alt_dev_llist_insert.o)
                              C:/Users/test/Documents/EPFL/MA1/Embedded/Lab4/lab_4_V2/sw/lab4_cam1_bsp/\libhal_bsp.a(alt_sys_init.o) (alt_dev_llist_insert)
C:/Users/test/Documents/EPFL/MA1/Embedded/Lab4/lab_4_V2/sw/lab4_cam1_bsp/\libhal_bsp.a(alt_do_ctors.o)
                              C:/Users/test/Documents/EPFL/MA1/Embedded/Lab4/lab_4_V2/sw/lab4_cam1_bsp/\libhal_bsp.a(alt_main.o) (_do_ctors)
C:/Users/test/Documents/EPFL/MA1/Embedded/Lab4/lab_4_V2/sw/lab4_cam1_bsp/\libhal_bsp.a(alt_do_dtors.o)
                              C:/Users/test/Documents/EPFL/MA1/Embedded/Lab4/lab_4_V2/sw/lab4_cam1_bsp/\libhal_bsp.a(alt_main.o) (_do_dtors)
C:/Users/test/Documents/EPFL/MA1/Embedded/Lab4/lab_4_V2/sw/lab4_cam1_bsp/\libhal_bsp.a(alt_find_dev.o)
                              C:/Users/test/Documents/EPFL/MA1/Embedded/Lab4/lab_4_V2/sw/lab4_cam1_bsp/\libhal_bsp.a(alt_open.o) (alt_find_dev)
C:/Users/test/Documents/EPFL/MA1/Embedded/Lab4/lab_4_V2/sw/lab4_cam1_bsp/\libhal_bsp.a(alt_find_file.o)
                              C:/Users/test/Documents/EPFL/MA1/Embedded/Lab4/lab_4_V2/sw/lab4_cam1_bsp/\libhal_bsp.a(alt_open.o) (alt_find_file)
C:/Users/test/Documents/EPFL/MA1/Embedded/Lab4/lab_4_V2/sw/lab4_cam1_bsp/\libhal_bsp.a(alt_fs_reg.o)
                              C:/Users/test/Documents/EPFL/MA1/Embedded/Lab4/lab_4_V2/sw/lab4_cam1_bsp/\libhal_bsp.a(alt_sys_init.o) (alt_fs_reg)
C:/Users/test/Documents/EPFL/MA1/Embedded/Lab4/lab_4_V2/sw/lab4_cam1_bsp/\libhal_bsp.a(alt_get_fd.o)
                              C:/Users/test/Documents/EPFL/MA1/Embedded/Lab4/lab_4_V2/sw/lab4_cam1_bsp/\libhal_bsp.a(alt_open.o) (alt_get_fd)
C:/Users/test/Documents/EPFL/MA1/Embedded/Lab4/lab_4_V2/sw/lab4_cam1_bsp/\libhal_bsp.a(alt_icache_flush_all.o)
                              C:/Users/test/Documents/EPFL/MA1/Embedded/Lab4/lab_4_V2/sw/lab4_cam1_bsp/\libhal_bsp.a(alt_load.o) (alt_icache_flush_all)
C:/Users/test/Documents/EPFL/MA1/Embedded/Lab4/lab_4_V2/sw/lab4_cam1_bsp/\libhal_bsp.a(alt_iic.o)
                              C:/Users/test/Documents/EPFL/MA1/Embedded/Lab4/lab_4_V2/sw/lab4_cam1_bsp/\libhal_bsp.a(altera_avalon_jtag_uart_init.o) (alt_ic_isr_register)
C:/Users/test/Documents/EPFL/MA1/Embedded/Lab4/lab_4_V2/sw/lab4_cam1_bsp/\libhal_bsp.a(alt_iic_isr_register.o)
                              C:/Users/test/Documents/EPFL/MA1/Embedded/Lab4/lab_4_V2/sw/lab4_cam1_bsp/\libhal_bsp.a(alt_iic.o) (alt_iic_isr_register)
C:/Users/test/Documents/EPFL/MA1/Embedded/Lab4/lab_4_V2/sw/lab4_cam1_bsp/\libhal_bsp.a(alt_io_redirect.o)
                              C:/Users/test/Documents/EPFL/MA1/Embedded/Lab4/lab_4_V2/sw/lab4_cam1_bsp/\libhal_bsp.a(alt_main.o) (alt_io_redirect)
C:/Users/test/Documents/EPFL/MA1/Embedded/Lab4/lab_4_V2/sw/lab4_cam1_bsp/\libhal_bsp.a(alt_irq_entry.o)
                              C:/Users/test/Documents/EPFL/MA1/Embedded/Lab4/lab_4_V2/sw/lab4_cam1_bsp/\libhal_bsp.a(alt_iic_isr_register.o) (alt_irq_entry)
C:/Users/test/Documents/EPFL/MA1/Embedded/Lab4/lab_4_V2/sw/lab4_cam1_bsp/\libhal_bsp.a(alt_irq_handler.o)
                              C:/Users/test/Documents/EPFL/MA1/Embedded/Lab4/lab_4_V2/sw/lab4_cam1_bsp/\libhal_bsp.a(alt_iic_isr_register.o) (alt_irq)
C:/Users/test/Documents/EPFL/MA1/Embedded/Lab4/lab_4_V2/sw/lab4_cam1_bsp/\libhal_bsp.a(alt_irq_vars.o)
                              C:/Users/test/Documents/EPFL/MA1/Embedded/Lab4/lab_4_V2/sw/lab4_cam1_bsp/\libhal_bsp.a(alt_iic.o) (alt_irq_active)
C:/Users/test/Documents/EPFL/MA1/Embedded/Lab4/lab_4_V2/sw/lab4_cam1_bsp/\libhal_bsp.a(alt_tick.o)
                              C:/Users/test/Documents/EPFL/MA1/Embedded/Lab4/lab_4_V2/sw/lab4_cam1_bsp/\libhal_bsp.a(altera_avalon_jtag_uart_init.o) (_alt_tick_rate)
C:/Users/test/Documents/EPFL/MA1/Embedded/Lab4/lab_4_V2/sw/lab4_cam1_bsp/\libhal_bsp.a(altera_nios2_gen2_irq.o)
                              C:/Users/test/Documents/EPFL/MA1/Embedded/Lab4/lab_4_V2/sw/lab4_cam1_bsp/\libhal_bsp.a(alt_sys_init.o) (altera_nios2_gen2_irq_init)
C:/Users/test/Documents/EPFL/MA1/Embedded/Lab4/lab_4_V2/sw/lab4_cam1_bsp/\libhal_bsp.a(alt_exception_entry.o)
                              C:/Users/test/Documents/EPFL/MA1/Embedded/Lab4/lab_4_V2/sw/lab4_cam1_bsp/\libhal_bsp.a(alt_irq_entry.o) (alt_exception)
C:/Users/test/Documents/EPFL/MA1/Embedded/Lab4/lab_4_V2/sw/lab4_cam1_bsp/\libhal_bsp.a(alt_icache_flush.o)
                              C:/Users/test/Documents/EPFL/MA1/Embedded/Lab4/lab_4_V2/sw/lab4_cam1_bsp/\libhal_bsp.a(alt_icache_flush_all.o) (alt_icache_flush)
C:/Users/test/Documents/EPFL/MA1/Embedded/Lab4/lab_4_V2/sw/lab4_cam1_bsp/\libhal_bsp.a(alt_instruction_exception_entry.o)
                              C:/Users/test/Documents/EPFL/MA1/Embedded/Lab4/lab_4_V2/sw/lab4_cam1_bsp/\libhal_bsp.a(alt_exception_entry.o) (alt_instruction_exception_entry)
x:/quartus/18.1/nios2eds/bin/gnu/h-x86_64-mingw32/bin/../lib/gcc/nios2-elf/5.3.0/../../../../../H-x86_64-mingw32/nios2-elf/lib\libc.a(lib_a-atexit.o)
                              C:/Users/test/Documents/EPFL/MA1/Embedded/Lab4/lab_4_V2/sw/lab4_cam1_bsp/\libhal_bsp.a(alt_main.o) (atexit)
x:/quartus/18.1/nios2eds/bin/gnu/h-x86_64-mingw32/bin/../lib/gcc/nios2-elf/5.3.0/../../../../../H-x86_64-mingw32/nios2-elf/lib\libc.a(lib_a-exit.o)
                              C:/Users/test/Documents/EPFL/MA1/Embedded/Lab4/lab_4_V2/sw/lab4_cam1_bsp/\libhal_bsp.a(alt_main.o) (exit)
x:/quartus/18.1/nios2eds/bin/gnu/h-x86_64-mingw32/bin/../lib/gcc/nios2-elf/5.3.0/../../../../../H-x86_64-mingw32/nios2-elf/lib\libc.a(lib_a-memcmp.o)
                              C:/Users/test/Documents/EPFL/MA1/Embedded/Lab4/lab_4_V2/sw/lab4_cam1_bsp/\libhal_bsp.a(alt_find_dev.o) (memcmp)
x:/quartus/18.1/nios2eds/bin/gnu/h-x86_64-mingw32/bin/../lib/gcc/nios2-elf/5.3.0/../../../../../H-x86_64-mingw32/nios2-elf/lib\libc.a(lib_a-__atexit.o)
                              x:/quartus/18.1/nios2eds/bin/gnu/h-x86_64-mingw32/bin/../lib/gcc/nios2-elf/5.3.0/../../../../../H-x86_64-mingw32/nios2-elf/lib\libc.a(lib_a-atexit.o) (__register_exitproc)
x:/quartus/18.1/nios2eds/bin/gnu/h-x86_64-mingw32/bin/../lib/gcc/nios2-elf/5.3.0/../../../../../H-x86_64-mingw32/nios2-elf/lib\libc.a(lib_a-__call_atexit.o)
                              x:/quartus/18.1/nios2eds/bin/gnu/h-x86_64-mingw32/bin/../lib/gcc/nios2-elf/5.3.0/../../../../../H-x86_64-mingw32/nios2-elf/lib\libc.a(lib_a-exit.o) (__call_exitprocs)
C:/Users/test/Documents/EPFL/MA1/Embedded/Lab4/lab_4_V2/sw/lab4_cam1_bsp/\libhal_bsp.a(alt_exit.o)
                              x:/quartus/18.1/nios2eds/bin/gnu/h-x86_64-mingw32/bin/../lib/gcc/nios2-elf/5.3.0/../../../../../H-x86_64-mingw32/nios2-elf/lib\libc.a(lib_a-exit.o) (_exit)

Allocating common symbols
Common symbol       size              file

alt_irq             0x100             C:/Users/test/Documents/EPFL/MA1/Embedded/Lab4/lab_4_V2/sw/lab4_cam1_bsp/\libhal_bsp.a(alt_irq_handler.o)
errno               0x4               x:/quartus/18.1/nios2eds/bin/gnu/h-x86_64-mingw32/bin/../lib/gcc/nios2-elf/5.3.0/../../../../../H-x86_64-mingw32/nios2-elf/lib\libc.a(lib_a-int_errno.o)

Memory Configuration

Name             Origin             Length             Attributes
reset            0x0000000010100000 0x0000000000000020
onchip_memory2_0 0x0000000010100020 0x000000000001ffe0
*default*        0x0000000000000000 0xffffffffffffffff

Linker script and memory map

LOAD C:/Users/test/Documents/EPFL/MA1/Embedded/Lab4/lab_4_V2/sw/lab4_cam1_bsp//obj/HAL/src/crt0.o
LOAD obj/default/cmos_sensor_output_generator/cmos_sensor_output_generator.o
LOAD obj/default/hello_world.o
LOAD obj/default/i2c/i2c.o
LOAD x:/quartus/18.1/nios2eds/bin/gnu/h-x86_64-mingw32/bin/../lib/gcc/nios2-elf/5.3.0/../../../../../H-x86_64-mingw32/nios2-elf/lib\libstdc++.a
LOAD x:/quartus/18.1/nios2eds/bin/gnu/h-x86_64-mingw32/bin/../lib/gcc/nios2-elf/5.3.0/../../../../../H-x86_64-mingw32/nios2-elf/lib\libm.a
LOAD x:/quartus/18.1/nios2eds/bin/gnu/h-x86_64-mingw32/bin/../lib/gcc/nios2-elf/5.3.0\libgcc.a
START GROUP
LOAD x:/quartus/18.1/nios2eds/bin/gnu/h-x86_64-mingw32/bin/../lib/gcc/nios2-elf/5.3.0/../../../../../H-x86_64-mingw32/nios2-elf/lib\libc.a
LOAD x:/quartus/18.1/nios2eds/bin/gnu/h-x86_64-mingw32/bin/../lib/gcc/nios2-elf/5.3.0\libgcc.a
LOAD C:/Users/test/Documents/EPFL/MA1/Embedded/Lab4/lab_4_V2/sw/lab4_cam1_bsp/\libhal_bsp.a
LOAD x:/quartus/18.1/nios2eds/bin/gnu/h-x86_64-mingw32/bin/../lib/gcc/nios2-elf/5.3.0/../../../../../H-x86_64-mingw32/nios2-elf/lib\libm.a
END GROUP
LOAD x:/quartus/18.1/nios2eds/bin/gnu/h-x86_64-mingw32/bin/../lib/gcc/nios2-elf/5.3.0\libgcc.a
                0x0000000010100000                __alt_mem_onchip_memory2_0 = 0x10100000

.entry          0x0000000010100000       0x20
 *(.entry)
 .entry         0x0000000010100000       0x20 C:/Users/test/Documents/EPFL/MA1/Embedded/Lab4/lab_4_V2/sw/lab4_cam1_bsp//obj/HAL/src/crt0.o
                0x0000000010100000                __reset

.exceptions     0x0000000010100020      0x224
                0x0000000010100020                PROVIDE (__ram_exceptions_start, ABSOLUTE (.))
                0x0000000010100020                . = ALIGN (0x20)
 *(.irq)
 *(.exceptions.entry.label)
 .exceptions.entry.label
                0x0000000010100020        0x0 C:/Users/test/Documents/EPFL/MA1/Embedded/Lab4/lab_4_V2/sw/lab4_cam1_bsp/\libhal_bsp.a(alt_irq_entry.o)
                0x0000000010100020                alt_irq_entry
 .exceptions.entry.label
                0x0000000010100020        0x0 C:/Users/test/Documents/EPFL/MA1/Embedded/Lab4/lab_4_V2/sw/lab4_cam1_bsp/\libhal_bsp.a(alt_exception_entry.o)
                0x0000000010100020                alt_exception
 *(.exceptions.entry.user)
 *(.exceptions.entry.ecc_fatal)
 *(.exceptions.entry)
 .exceptions.entry
                0x0000000010100020       0x54 C:/Users/test/Documents/EPFL/MA1/Embedded/Lab4/lab_4_V2/sw/lab4_cam1_bsp/\libhal_bsp.a(alt_exception_entry.o)
 *(.exceptions.irqtest.user)
 *(.exceptions.irqtest)
 .exceptions.irqtest
                0x0000000010100074       0x10 C:/Users/test/Documents/EPFL/MA1/Embedded/Lab4/lab_4_V2/sw/lab4_cam1_bsp/\libhal_bsp.a(alt_irq_entry.o)
 *(.exceptions.irqhandler.user)
 *(.exceptions.irqhandler)
 .exceptions.irqhandler
                0x0000000010100084        0x4 C:/Users/test/Documents/EPFL/MA1/Embedded/Lab4/lab_4_V2/sw/lab4_cam1_bsp/\libhal_bsp.a(alt_irq_entry.o)
 *(.exceptions.irqreturn.user)
 *(.exceptions.irqreturn)
 .exceptions.irqreturn
                0x0000000010100088        0x4 C:/Users/test/Documents/EPFL/MA1/Embedded/Lab4/lab_4_V2/sw/lab4_cam1_bsp/\libhal_bsp.a(alt_irq_entry.o)
 *(.exceptions.notirq.label)
 .exceptions.notirq.label
                0x000000001010008c        0x0 C:/Users/test/Documents/EPFL/MA1/Embedded/Lab4/lab_4_V2/sw/lab4_cam1_bsp/\libhal_bsp.a(alt_irq_entry.o)
 *(.exceptions.notirq.user)
 *(.exceptions.notirq)
 .exceptions.notirq
                0x000000001010008c        0x8 C:/Users/test/Documents/EPFL/MA1/Embedded/Lab4/lab_4_V2/sw/lab4_cam1_bsp/\libhal_bsp.a(alt_exception_entry.o)
 *(.exceptions.soft.user)
 *(.exceptions.soft)
 *(.exceptions.unknown.user)
 *(.exceptions.unknown)
 .exceptions.unknown
                0x0000000010100094       0x14 C:/Users/test/Documents/EPFL/MA1/Embedded/Lab4/lab_4_V2/sw/lab4_cam1_bsp/\libhal_bsp.a(alt_exception_entry.o)
 *(.exceptions.exit.label)
 .exceptions.exit.label
                0x00000000101000a8        0x0 C:/Users/test/Documents/EPFL/MA1/Embedded/Lab4/lab_4_V2/sw/lab4_cam1_bsp/\libhal_bsp.a(alt_irq_entry.o)
 .exceptions.exit.label
                0x00000000101000a8        0x0 C:/Users/test/Documents/EPFL/MA1/Embedded/Lab4/lab_4_V2/sw/lab4_cam1_bsp/\libhal_bsp.a(alt_exception_entry.o)
 *(.exceptions.exit.user)
 *(.exceptions.exit)
 .exceptions.exit
                0x00000000101000a8       0x54 C:/Users/test/Documents/EPFL/MA1/Embedded/Lab4/lab_4_V2/sw/lab4_cam1_bsp/\libhal_bsp.a(alt_exception_entry.o)
 *(.exceptions)
 .exceptions    0x00000000101000fc       0xd4 C:/Users/test/Documents/EPFL/MA1/Embedded/Lab4/lab_4_V2/sw/lab4_cam1_bsp/\libhal_bsp.a(alt_irq_handler.o)
                0x00000000101000fc                alt_irq_handler
 .exceptions    0x00000000101001d0       0x74 C:/Users/test/Documents/EPFL/MA1/Embedded/Lab4/lab_4_V2/sw/lab4_cam1_bsp/\libhal_bsp.a(alt_instruction_exception_entry.o)
                0x00000000101001d0                alt_instruction_exception_entry
                0x0000000010100244                PROVIDE (__ram_exceptions_end, ABSOLUTE (.))
                0x0000000010100020                PROVIDE (__flash_exceptions_start, LOADADDR (.exceptions))

.text           0x0000000010100244    0x119cc
                [!provide]                        PROVIDE (stext, ABSOLUTE (.))
 *(.interp)
 *(.hash)
 *(.dynsym)
 *(.dynstr)
 *(.gnu.version)
 *(.gnu.version_d)
 *(.gnu.version_r)
 *(.rel.init)
 *(.rela.init)
 *(.rel.text .rel.text.* .rel.gnu.linkonce.t.*)
 *(.rela.text .rela.text.* .rela.gnu.linkonce.t.*)
 *(.rel.fini)
 *(.rela.fini)
 *(.rel.rodata .rel.rodata.* .rel.gnu.linkonce.r.*)
 *(.rela.rodata .rela.rodata.* .rela.gnu.linkonce.r.*)
 *(.rel.data .rel.data.* .rel.gnu.linkonce.d.*)
 *(.rela.data .rela.data.* .rela.gnu.linkonce.d.*)
 *(.rel.tdata .rel.tdata.* .rel.gnu.linkonce.td.*)
 *(.rela.tdata .rela.tdata.* .rela.gnu.linkonce.td.*)
 *(.rel.tbss .rel.tbss.* .rel.gnu.linkonce.tb.*)
 *(.rela.tbss .rela.tbss.* .rela.gnu.linkonce.tb.*)
 *(.rel.ctors)
 *(.rela.ctors)
 *(.rel.dtors)
 *(.rela.dtors)
 *(.rel.got)
 *(.rela.got)
 *(.rel.sdata .rel.sdata.* .rel.gnu.linkonce.s.*)
 *(.rela.sdata .rela.sdata.* .rela.gnu.linkonce.s.*)
 *(.rel.sbss .rel.sbss.* .rel.gnu.linkonce.sb.*)
 *(.rela.sbss .rela.sbss.* .rela.gnu.linkonce.sb.*)
 *(.rel.sdata2 .rel.sdata2.* .rel.gnu.linkonce.s2.*)
 *(.rela.sdata2 .rela.sdata2.* .rela.gnu.linkonce.s2.*)
 *(.rel.sbss2 .rel.sbss2.* .rel.gnu.linkonce.sb2.*)
 *(.rela.sbss2 .rela.sbss2.* .rela.gnu.linkonce.sb2.*)
 *(.rel.bss .rel.bss.* .rel.gnu.linkonce.b.*)
 *(.rela.bss .rela.bss.* .rela.gnu.linkonce.b.*)
 *(.rel.plt)
 *(.rela.plt)
 *(.rel.dyn)
 *(.init)
 *(.plt)
 *(.text .stub .text.* .gnu.linkonce.t.*)
 .text          0x0000000010100244       0x4c C:/Users/test/Documents/EPFL/MA1/Embedded/Lab4/lab_4_V2/sw/lab4_cam1_bsp//obj/HAL/src/crt0.o
                0x0000000010100244                _start
 .text          0x0000000010100290      0x8b4 obj/default/cmos_sensor_output_generator/cmos_sensor_output_generator.o
                0x00000000101008d8                cmos_sensor_output_generator_inst
                0x0000000010100950                cmos_sensor_output_generator_init
                0x00000000101009cc                cmos_sensor_output_generator_configure
                0x0000000010100ad4                cmos_sensor_output_generator_start
                0x0000000010100b0c                cmos_sensor_output_generator_stop
 .text          0x0000000010100b44      0x70c obj/default/hello_world.o
                0x0000000010100b44                trdb_d5m_write
                0x0000000010100bcc                trdb_d5m_read
                0x0000000010100c6c                main
 .text          0x0000000010101250      0x80c obj/default/i2c/i2c.o
                0x000000001010139c                i2c_inst
                0x00000000101013c8                i2c_init
                0x000000001010142c                i2c_configure
                0x00000000101014ac                i2c_write
                0x00000000101015d8                i2c_read
                0x0000000010101720                i2c_write_array
                0x00000000101018b4                i2c_read_array
 .text          0x0000000010101a5c      0x1b4 x:/quartus/18.1/nios2eds/bin/gnu/h-x86_64-mingw32/bin/../lib/gcc/nios2-elf/5.3.0\libgcc.a(lib2-divmod.o)
                0x0000000010101a5c                __divsi3
                0x0000000010101ae0                __modsi3
                0x0000000010101b54                __udivsi3
                0x0000000010101bb8                __umodsi3
 .text          0x0000000010101c10        0x0 x:/quartus/18.1/nios2eds/bin/gnu/h-x86_64-mingw32/bin/../lib/gcc/nios2-elf/5.3.0/../../../../../H-x86_64-mingw32/nios2-elf/lib\libc.a(lib_a-fclose.o)
 .text._fclose_r
                0x0000000010101c10       0xf0 x:/quartus/18.1/nios2eds/bin/gnu/h-x86_64-mingw32/bin/../lib/gcc/nios2-elf/5.3.0/../../../../../H-x86_64-mingw32/nios2-elf/lib\libc.a(lib_a-fclose.o)
                0x0000000010101c10                _fclose_r
 .text.fclose   0x0000000010101d00       0x14 x:/quartus/18.1/nios2eds/bin/gnu/h-x86_64-mingw32/bin/../lib/gcc/nios2-elf/5.3.0/../../../../../H-x86_64-mingw32/nios2-elf/lib\libc.a(lib_a-fclose.o)
                0x0000000010101d00                fclose
 .text          0x0000000010101d14        0x0 x:/quartus/18.1/nios2eds/bin/gnu/h-x86_64-mingw32/bin/../lib/gcc/nios2-elf/5.3.0/../../../../../H-x86_64-mingw32/nios2-elf/lib\libc.a(lib_a-fflush.o)
 .text.__sflush_r
                0x0000000010101d14      0x21c x:/quartus/18.1/nios2eds/bin/gnu/h-x86_64-mingw32/bin/../lib/gcc/nios2-elf/5.3.0/../../../../../H-x86_64-mingw32/nios2-elf/lib\libc.a(lib_a-fflush.o)
                0x0000000010101d14                __sflush_r
 .text._fflush_r
                0x0000000010101f30       0x5c x:/quartus/18.1/nios2eds/bin/gnu/h-x86_64-mingw32/bin/../lib/gcc/nios2-elf/5.3.0/../../../../../H-x86_64-mingw32/nios2-elf/lib\libc.a(lib_a-fflush.o)
                0x0000000010101f30                _fflush_r
 .text.fflush   0x0000000010101f8c       0x30 x:/quartus/18.1/nios2eds/bin/gnu/h-x86_64-mingw32/bin/../lib/gcc/nios2-elf/5.3.0/../../../../../H-x86_64-mingw32/nios2-elf/lib\libc.a(lib_a-fflush.o)
                0x0000000010101f8c                fflush
 .text          0x0000000010101fbc        0x0 x:/quartus/18.1/nios2eds/bin/gnu/h-x86_64-mingw32/bin/../lib/gcc/nios2-elf/5.3.0/../../../../../H-x86_64-mingw32/nios2-elf/lib\libc.a(lib_a-findfp.o)
 .text.__fp_unlock
                0x0000000010101fbc        0x8 x:/quartus/18.1/nios2eds/bin/gnu/h-x86_64-mingw32/bin/../lib/gcc/nios2-elf/5.3.0/../../../../../H-x86_64-mingw32/nios2-elf/lib\libc.a(lib_a-findfp.o)
 .text._cleanup_r
                0x0000000010101fc4        0xc x:/quartus/18.1/nios2eds/bin/gnu/h-x86_64-mingw32/bin/../lib/gcc/nios2-elf/5.3.0/../../../../../H-x86_64-mingw32/nios2-elf/lib\libc.a(lib_a-findfp.o)
                0x0000000010101fc4                _cleanup_r
 .text.__sinit.part.1
                0x0000000010101fd0      0x19c x:/quartus/18.1/nios2eds/bin/gnu/h-x86_64-mingw32/bin/../lib/gcc/nios2-elf/5.3.0/../../../../../H-x86_64-mingw32/nios2-elf/lib\libc.a(lib_a-findfp.o)
 .text.__fp_lock
                0x000000001010216c        0x8 x:/quartus/18.1/nios2eds/bin/gnu/h-x86_64-mingw32/bin/../lib/gcc/nios2-elf/5.3.0/../../../../../H-x86_64-mingw32/nios2-elf/lib\libc.a(lib_a-findfp.o)
 .text.__sfmoreglue
                0x0000000010102174       0x68 x:/quartus/18.1/nios2eds/bin/gnu/h-x86_64-mingw32/bin/../lib/gcc/nios2-elf/5.3.0/../../../../../H-x86_64-mingw32/nios2-elf/lib\libc.a(lib_a-findfp.o)
                0x0000000010102174                __sfmoreglue
 .text.__sfp    0x00000000101021dc      0x118 x:/quartus/18.1/nios2eds/bin/gnu/h-x86_64-mingw32/bin/../lib/gcc/nios2-elf/5.3.0/../../../../../H-x86_64-mingw32/nios2-elf/lib\libc.a(lib_a-findfp.o)
                0x00000000101021dc                __sfp
 .text._cleanup
                0x00000000101022f4       0x18 x:/quartus/18.1/nios2eds/bin/gnu/h-x86_64-mingw32/bin/../lib/gcc/nios2-elf/5.3.0/../../../../../H-x86_64-mingw32/nios2-elf/lib\libc.a(lib_a-findfp.o)
                0x00000000101022f4                _cleanup
 .text.__sinit  0x000000001010230c       0x10 x:/quartus/18.1/nios2eds/bin/gnu/h-x86_64-mingw32/bin/../lib/gcc/nios2-elf/5.3.0/../../../../../H-x86_64-mingw32/nios2-elf/lib\libc.a(lib_a-findfp.o)
                0x000000001010230c                __sinit
 .text.__sfp_lock_acquire
                0x000000001010231c        0x4 x:/quartus/18.1/nios2eds/bin/gnu/h-x86_64-mingw32/bin/../lib/gcc/nios2-elf/5.3.0/../../../../../H-x86_64-mingw32/nios2-elf/lib\libc.a(lib_a-findfp.o)
                0x000000001010231c                __sfp_lock_acquire
 .text.__sfp_lock_release
                0x0000000010102320        0x4 x:/quartus/18.1/nios2eds/bin/gnu/h-x86_64-mingw32/bin/../lib/gcc/nios2-elf/5.3.0/../../../../../H-x86_64-mingw32/nios2-elf/lib\libc.a(lib_a-findfp.o)
                0x0000000010102320                __sfp_lock_release
 .text.__sinit_lock_acquire
                0x0000000010102324        0x4 x:/quartus/18.1/nios2eds/bin/gnu/h-x86_64-mingw32/bin/../lib/gcc/nios2-elf/5.3.0/../../../../../H-x86_64-mingw32/nios2-elf/lib\libc.a(lib_a-findfp.o)
                0x0000000010102324                __sinit_lock_acquire
 .text.__sinit_lock_release
                0x0000000010102328        0x4 x:/quartus/18.1/nios2eds/bin/gnu/h-x86_64-mingw32/bin/../lib/gcc/nios2-elf/5.3.0/../../../../../H-x86_64-mingw32/nios2-elf/lib\libc.a(lib_a-findfp.o)
                0x0000000010102328                __sinit_lock_release
 .text.__fp_lock_all
                0x000000001010232c       0x18 x:/quartus/18.1/nios2eds/bin/gnu/h-x86_64-mingw32/bin/../lib/gcc/nios2-elf/5.3.0/../../../../../H-x86_64-mingw32/nios2-elf/lib\libc.a(lib_a-findfp.o)
                0x000000001010232c                __fp_lock_all
 .text.__fp_unlock_all
                0x0000000010102344       0x18 x:/quartus/18.1/nios2eds/bin/gnu/h-x86_64-mingw32/bin/../lib/gcc/nios2-elf/5.3.0/../../../../../H-x86_64-mingw32/nios2-elf/lib\libc.a(lib_a-findfp.o)
                0x0000000010102344                __fp_unlock_all
 .text          0x000000001010235c        0x0 x:/quartus/18.1/nios2eds/bin/gnu/h-x86_64-mingw32/bin/../lib/gcc/nios2-elf/5.3.0/../../../../../H-x86_64-mingw32/nios2-elf/lib\libc.a(lib_a-fopen.o)
 .text._fopen_r
                0x000000001010235c       0xf4 x:/quartus/18.1/nios2eds/bin/gnu/h-x86_64-mingw32/bin/../lib/gcc/nios2-elf/5.3.0/../../../../../H-x86_64-mingw32/nios2-elf/lib\libc.a(lib_a-fopen.o)
                0x000000001010235c                _fopen_r
 .text.fopen    0x0000000010102450       0x18 x:/quartus/18.1/nios2eds/bin/gnu/h-x86_64-mingw32/bin/../lib/gcc/nios2-elf/5.3.0/../../../../../H-x86_64-mingw32/nios2-elf/lib\libc.a(lib_a-fopen.o)
                0x0000000010102450                fopen
 .text          0x0000000010102468        0x0 x:/quartus/18.1/nios2eds/bin/gnu/h-x86_64-mingw32/bin/../lib/gcc/nios2-elf/5.3.0/../../../../../H-x86_64-mingw32/nios2-elf/lib\libc.a(lib_a-fprintf.o)
 .text._fprintf_r
                0x0000000010102468       0x28 x:/quartus/18.1/nios2eds/bin/gnu/h-x86_64-mingw32/bin/../lib/gcc/nios2-elf/5.3.0/../../../../../H-x86_64-mingw32/nios2-elf/lib\libc.a(lib_a-fprintf.o)
                0x0000000010102468                _fprintf_r
 .text.fprintf  0x0000000010102490       0x24 x:/quartus/18.1/nios2eds/bin/gnu/h-x86_64-mingw32/bin/../lib/gcc/nios2-elf/5.3.0/../../../../../H-x86_64-mingw32/nios2-elf/lib\libc.a(lib_a-fprintf.o)
                0x0000000010102490                fprintf
 .text          0x00000000101024b4        0x0 x:/quartus/18.1/nios2eds/bin/gnu/h-x86_64-mingw32/bin/../lib/gcc/nios2-elf/5.3.0/../../../../../H-x86_64-mingw32/nios2-elf/lib\libc.a(lib_a-fputc.o)
 .text._fputc_r
                0x00000000101024b4       0x44 x:/quartus/18.1/nios2eds/bin/gnu/h-x86_64-mingw32/bin/../lib/gcc/nios2-elf/5.3.0/../../../../../H-x86_64-mingw32/nios2-elf/lib\libc.a(lib_a-fputc.o)
                0x00000000101024b4                _fputc_r
 .text.fputc    0x00000000101024f8       0x5c x:/quartus/18.1/nios2eds/bin/gnu/h-x86_64-mingw32/bin/../lib/gcc/nios2-elf/5.3.0/../../../../../H-x86_64-mingw32/nios2-elf/lib\libc.a(lib_a-fputc.o)
                0x00000000101024f8                fputc
 .text          0x0000000010102554        0x0 x:/quartus/18.1/nios2eds/bin/gnu/h-x86_64-mingw32/bin/../lib/gcc/nios2-elf/5.3.0/../../../../../H-x86_64-mingw32/nios2-elf/lib\libc.a(lib_a-freer.o)
 .text._malloc_trim_r
                0x0000000010102554      0x124 x:/quartus/18.1/nios2eds/bin/gnu/h-x86_64-mingw32/bin/../lib/gcc/nios2-elf/5.3.0/../../../../../H-x86_64-mingw32/nios2-elf/lib\libc.a(lib_a-freer.o)
                0x0000000010102554                _malloc_trim_r
 .text._free_r  0x0000000010102678      0x310 x:/quartus/18.1/nios2eds/bin/gnu/h-x86_64-mingw32/bin/../lib/gcc/nios2-elf/5.3.0/../../../../../H-x86_64-mingw32/nios2-elf/lib\libc.a(lib_a-freer.o)
                0x0000000010102678                _free_r
 .text          0x0000000010102988        0x0 x:/quartus/18.1/nios2eds/bin/gnu/h-x86_64-mingw32/bin/../lib/gcc/nios2-elf/5.3.0/../../../../../H-x86_64-mingw32/nios2-elf/lib\libc.a(lib_a-fseek.o)
 .text._fseek_r
                0x0000000010102988        0x4 x:/quartus/18.1/nios2eds/bin/gnu/h-x86_64-mingw32/bin/../lib/gcc/nios2-elf/5.3.0/../../../../../H-x86_64-mingw32/nios2-elf/lib\libc.a(lib_a-fseek.o)
                0x0000000010102988                _fseek_r
 .text.fseek    0x000000001010298c       0x1c x:/quartus/18.1/nios2eds/bin/gnu/h-x86_64-mingw32/bin/../lib/gcc/nios2-elf/5.3.0/../../../../../H-x86_64-mingw32/nios2-elf/lib\libc.a(lib_a-fseek.o)
                0x000000001010298c                fseek
 .text          0x00000000101029a8        0x0 x:/quartus/18.1/nios2eds/bin/gnu/h-x86_64-mingw32/bin/../lib/gcc/nios2-elf/5.3.0/../../../../../H-x86_64-mingw32/nios2-elf/lib\libc.a(lib_a-fseeko.o)
 .text._fseeko_r
                0x00000000101029a8      0x444 x:/quartus/18.1/nios2eds/bin/gnu/h-x86_64-mingw32/bin/../lib/gcc/nios2-elf/5.3.0/../../../../../H-x86_64-mingw32/nios2-elf/lib\libc.a(lib_a-fseeko.o)
                0x00000000101029a8                _fseeko_r
 .text.fseeko   0x0000000010102dec       0x1c x:/quartus/18.1/nios2eds/bin/gnu/h-x86_64-mingw32/bin/../lib/gcc/nios2-elf/5.3.0/../../../../../H-x86_64-mingw32/nios2-elf/lib\libc.a(lib_a-fseeko.o)
                0x0000000010102dec                fseeko
 .text          0x0000000010102e08        0x0 x:/quartus/18.1/nios2eds/bin/gnu/h-x86_64-mingw32/bin/../lib/gcc/nios2-elf/5.3.0/../../../../../H-x86_64-mingw32/nios2-elf/lib\libc.a(lib_a-fstatr.o)
 .text._fstat_r
                0x0000000010102e08       0x5c x:/quartus/18.1/nios2eds/bin/gnu/h-x86_64-mingw32/bin/../lib/gcc/nios2-elf/5.3.0/../../../../../H-x86_64-mingw32/nios2-elf/lib\libc.a(lib_a-fstatr.o)
                0x0000000010102e08                _fstat_r
 .text          0x0000000010102e64        0x0 x:/quartus/18.1/nios2eds/bin/gnu/h-x86_64-mingw32/bin/../lib/gcc/nios2-elf/5.3.0/../../../../../H-x86_64-mingw32/nios2-elf/lib\libc.a(lib_a-fwalk.o)
 .text._fwalk   0x0000000010102e64       0xc4 x:/quartus/18.1/nios2eds/bin/gnu/h-x86_64-mingw32/bin/../lib/gcc/nios2-elf/5.3.0/../../../../../H-x86_64-mingw32/nios2-elf/lib\libc.a(lib_a-fwalk.o)
                0x0000000010102e64                _fwalk
 .text._fwalk_reent
                0x0000000010102f28       0xc4 x:/quartus/18.1/nios2eds/bin/gnu/h-x86_64-mingw32/bin/../lib/gcc/nios2-elf/5.3.0/../../../../../H-x86_64-mingw32/nios2-elf/lib\libc.a(lib_a-fwalk.o)
                0x0000000010102f28                _fwalk_reent
 .text          0x0000000010102fec        0x0 x:/quartus/18.1/nios2eds/bin/gnu/h-x86_64-mingw32/bin/../lib/gcc/nios2-elf/5.3.0/../../../../../H-x86_64-mingw32/nios2-elf/lib\libc.a(lib_a-impure.o)
 .text          0x0000000010102fec        0x0 x:/quartus/18.1/nios2eds/bin/gnu/h-x86_64-mingw32/bin/../lib/gcc/nios2-elf/5.3.0/../../../../../H-x86_64-mingw32/nios2-elf/lib\libc.a(lib_a-int_errno.o)
 .text          0x0000000010102fec        0x0 x:/quartus/18.1/nios2eds/bin/gnu/h-x86_64-mingw32/bin/../lib/gcc/nios2-elf/5.3.0/../../../../../H-x86_64-mingw32/nios2-elf/lib\libc.a(lib_a-makebuf.o)
 .text.__smakebuf_r
                0x0000000010102fec      0x1bc x:/quartus/18.1/nios2eds/bin/gnu/h-x86_64-mingw32/bin/../lib/gcc/nios2-elf/5.3.0/../../../../../H-x86_64-mingw32/nios2-elf/lib\libc.a(lib_a-makebuf.o)
                0x0000000010102fec                __smakebuf_r
 .text          0x00000000101031a8        0x0 x:/quartus/18.1/nios2eds/bin/gnu/h-x86_64-mingw32/bin/../lib/gcc/nios2-elf/5.3.0/../../../../../H-x86_64-mingw32/nios2-elf/lib\libc.a(lib_a-mallocr.o)
 .text._malloc_r
                0x00000000101031a8      0x80c x:/quartus/18.1/nios2eds/bin/gnu/h-x86_64-mingw32/bin/../lib/gcc/nios2-elf/5.3.0/../../../../../H-x86_64-mingw32/nios2-elf/lib\libc.a(lib_a-mallocr.o)
                0x00000000101031a8                _malloc_r
 .text          0x00000000101039b4        0x0 x:/quartus/18.1/nios2eds/bin/gnu/h-x86_64-mingw32/bin/../lib/gcc/nios2-elf/5.3.0/../../../../../H-x86_64-mingw32/nios2-elf/lib\libc.a(lib_a-memset.o)
 .text.memset   0x00000000101039b4      0x128 x:/quartus/18.1/nios2eds/bin/gnu/h-x86_64-mingw32/bin/../lib/gcc/nios2-elf/5.3.0/../../../../../H-x86_64-mingw32/nios2-elf/lib\libc.a(lib_a-memset.o)
                0x00000000101039b4                memset
 .text          0x0000000010103adc        0x0 x:/quartus/18.1/nios2eds/bin/gnu/h-x86_64-mingw32/bin/../lib/gcc/nios2-elf/5.3.0/../../../../../H-x86_64-mingw32/nios2-elf/lib\libc.a(lib_a-openr.o)
 .text._open_r  0x0000000010103adc       0x60 x:/quartus/18.1/nios2eds/bin/gnu/h-x86_64-mingw32/bin/../lib/gcc/nios2-elf/5.3.0/../../../../../H-x86_64-mingw32/nios2-elf/lib\libc.a(lib_a-openr.o)
                0x0000000010103adc                _open_r
 .text          0x0000000010103b3c        0x0 x:/quartus/18.1/nios2eds/bin/gnu/h-x86_64-mingw32/bin/../lib/gcc/nios2-elf/5.3.0/../../../../../H-x86_64-mingw32/nios2-elf/lib\libc.a(lib_a-printf.o)
 .text._printf_r
                0x0000000010103b3c       0x30 x:/quartus/18.1/nios2eds/bin/gnu/h-x86_64-mingw32/bin/../lib/gcc/nios2-elf/5.3.0/../../../../../H-x86_64-mingw32/nios2-elf/lib\libc.a(lib_a-printf.o)
                0x0000000010103b3c                _printf_r
 .text.printf   0x0000000010103b6c       0x3c x:/quartus/18.1/nios2eds/bin/gnu/h-x86_64-mingw32/bin/../lib/gcc/nios2-elf/5.3.0/../../../../../H-x86_64-mingw32/nios2-elf/lib\libc.a(lib_a-printf.o)
                0x0000000010103b6c                printf
 .text          0x0000000010103ba8        0x0 x:/quartus/18.1/nios2eds/bin/gnu/h-x86_64-mingw32/bin/../lib/gcc/nios2-elf/5.3.0/../../../../../H-x86_64-mingw32/nios2-elf/lib\libc.a(lib_a-putc.o)
 .text._putc_r  0x0000000010103ba8       0xa0 x:/quartus/18.1/nios2eds/bin/gnu/h-x86_64-mingw32/bin/../lib/gcc/nios2-elf/5.3.0/../../../../../H-x86_64-mingw32/nios2-elf/lib\libc.a(lib_a-putc.o)
                0x0000000010103ba8                _putc_r
 .text.putc     0x0000000010103c48       0xc8 x:/quartus/18.1/nios2eds/bin/gnu/h-x86_64-mingw32/bin/../lib/gcc/nios2-elf/5.3.0/../../../../../H-x86_64-mingw32/nios2-elf/lib\libc.a(lib_a-putc.o)
                0x0000000010103c48                putc
 .text          0x0000000010103d10        0x0 x:/quartus/18.1/nios2eds/bin/gnu/h-x86_64-mingw32/bin/../lib/gcc/nios2-elf/5.3.0/../../../../../H-x86_64-mingw32/nios2-elf/lib\libc.a(lib_a-puts.o)
 .text._puts_r  0x0000000010103d10       0xc0 x:/quartus/18.1/nios2eds/bin/gnu/h-x86_64-mingw32/bin/../lib/gcc/nios2-elf/5.3.0/../../../../../H-x86_64-mingw32/nios2-elf/lib\libc.a(lib_a-puts.o)
                0x0000000010103d10                _puts_r
 .text.puts     0x0000000010103dd0       0x14 x:/quartus/18.1/nios2eds/bin/gnu/h-x86_64-mingw32/bin/../lib/gcc/nios2-elf/5.3.0/../../../../../H-x86_64-mingw32/nios2-elf/lib\libc.a(lib_a-puts.o)
                0x0000000010103dd0                puts
 .text          0x0000000010103de4        0x0 x:/quartus/18.1/nios2eds/bin/gnu/h-x86_64-mingw32/bin/../lib/gcc/nios2-elf/5.3.0/../../../../../H-x86_64-mingw32/nios2-elf/lib\libc.a(lib_a-refill.o)
 .text.lflush   0x0000000010103de4       0x1c x:/quartus/18.1/nios2eds/bin/gnu/h-x86_64-mingw32/bin/../lib/gcc/nios2-elf/5.3.0/../../../../../H-x86_64-mingw32/nios2-elf/lib\libc.a(lib_a-refill.o)
 .text.__srefill_r
                0x0000000010103e00      0x1d4 x:/quartus/18.1/nios2eds/bin/gnu/h-x86_64-mingw32/bin/../lib/gcc/nios2-elf/5.3.0/../../../../../H-x86_64-mingw32/nios2-elf/lib\libc.a(lib_a-refill.o)
                0x0000000010103e00                __srefill_r
 .text          0x0000000010103fd4        0x0 x:/quartus/18.1/nios2eds/bin/gnu/h-x86_64-mingw32/bin/../lib/gcc/nios2-elf/5.3.0/../../../../../H-x86_64-mingw32/nios2-elf/lib\libc.a(lib_a-rewind.o)
 .text._rewind_r
                0x0000000010103fd4       0x38 x:/quartus/18.1/nios2eds/bin/gnu/h-x86_64-mingw32/bin/../lib/gcc/nios2-elf/5.3.0/../../../../../H-x86_64-mingw32/nios2-elf/lib\libc.a(lib_a-rewind.o)
                0x0000000010103fd4                _rewind_r
 .text.rewind   0x000000001010400c       0x48 x:/quartus/18.1/nios2eds/bin/gnu/h-x86_64-mingw32/bin/../lib/gcc/nios2-elf/5.3.0/../../../../../H-x86_64-mingw32/nios2-elf/lib\libc.a(lib_a-rewind.o)
                0x000000001010400c                rewind
 .text          0x0000000010104054        0x0 x:/quartus/18.1/nios2eds/bin/gnu/h-x86_64-mingw32/bin/../lib/gcc/nios2-elf/5.3.0/../../../../../H-x86_64-mingw32/nios2-elf/lib\libc.a(lib_a-sbrkr.o)
 .text._sbrk_r  0x0000000010104054       0x54 x:/quartus/18.1/nios2eds/bin/gnu/h-x86_64-mingw32/bin/../lib/gcc/nios2-elf/5.3.0/../../../../../H-x86_64-mingw32/nios2-elf/lib\libc.a(lib_a-sbrkr.o)
                0x0000000010104054                _sbrk_r
 .text          0x00000000101040a8        0x0 x:/quartus/18.1/nios2eds/bin/gnu/h-x86_64-mingw32/bin/../lib/gcc/nios2-elf/5.3.0/../../../../../H-x86_64-mingw32/nios2-elf/lib\libc.a(lib_a-stdio.o)
 .text.__sread  0x00000000101040a8       0x54 x:/quartus/18.1/nios2eds/bin/gnu/h-x86_64-mingw32/bin/../lib/gcc/nios2-elf/5.3.0/../../../../../H-x86_64-mingw32/nios2-elf/lib\libc.a(lib_a-stdio.o)
                0x00000000101040a8                __sread
 .text.__seofread
                0x00000000101040fc        0x8 x:/quartus/18.1/nios2eds/bin/gnu/h-x86_64-mingw32/bin/../lib/gcc/nios2-elf/5.3.0/../../../../../H-x86_64-mingw32/nios2-elf/lib\libc.a(lib_a-stdio.o)
                0x00000000101040fc                __seofread
 .text.__swrite
                0x0000000010104104       0x7c x:/quartus/18.1/nios2eds/bin/gnu/h-x86_64-mingw32/bin/../lib/gcc/nios2-elf/5.3.0/../../../../../H-x86_64-mingw32/nios2-elf/lib\libc.a(lib_a-stdio.o)
                0x0000000010104104                __swrite
 .text.__sseek  0x0000000010104180       0x5c x:/quartus/18.1/nios2eds/bin/gnu/h-x86_64-mingw32/bin/../lib/gcc/nios2-elf/5.3.0/../../../../../H-x86_64-mingw32/nios2-elf/lib\libc.a(lib_a-stdio.o)
                0x0000000010104180                __sseek
 .text.__sclose
                0x00000000101041dc        0x8 x:/quartus/18.1/nios2eds/bin/gnu/h-x86_64-mingw32/bin/../lib/gcc/nios2-elf/5.3.0/../../../../../H-x86_64-mingw32/nios2-elf/lib\libc.a(lib_a-stdio.o)
                0x00000000101041dc                __sclose
 .text          0x00000000101041e4        0x0 x:/quartus/18.1/nios2eds/bin/gnu/h-x86_64-mingw32/bin/../lib/gcc/nios2-elf/5.3.0/../../../../../H-x86_64-mingw32/nios2-elf/lib\libc.a(lib_a-strlen.o)
 .text.strlen   0x00000000101041e4       0x98 x:/quartus/18.1/nios2eds/bin/gnu/h-x86_64-mingw32/bin/../lib/gcc/nios2-elf/5.3.0/../../../../../H-x86_64-mingw32/nios2-elf/lib\libc.a(lib_a-strlen.o)
                0x00000000101041e4                strlen
 .text          0x000000001010427c        0x0 x:/quartus/18.1/nios2eds/bin/gnu/h-x86_64-mingw32/bin/../lib/gcc/nios2-elf/5.3.0/../../../../../H-x86_64-mingw32/nios2-elf/lib\libc.a(lib_a-vfprintf.o)
 .text.___vfprintf_internal_r
                0x000000001010427c     0x21f8 x:/quartus/18.1/nios2eds/bin/gnu/h-x86_64-mingw32/bin/../lib/gcc/nios2-elf/5.3.0/../../../../../H-x86_64-mingw32/nios2-elf/lib\libc.a(lib_a-vfprintf.o)
                0x000000001010427c                ___vfprintf_internal_r
 .text.__vfprintf_internal
                0x0000000010106474       0x1c x:/quartus/18.1/nios2eds/bin/gnu/h-x86_64-mingw32/bin/../lib/gcc/nios2-elf/5.3.0/../../../../../H-x86_64-mingw32/nios2-elf/lib\libc.a(lib_a-vfprintf.o)
                0x0000000010106474                __vfprintf_internal
 .text.__sbprintf
                0x0000000010106490       0xbc x:/quartus/18.1/nios2eds/bin/gnu/h-x86_64-mingw32/bin/../lib/gcc/nios2-elf/5.3.0/../../../../../H-x86_64-mingw32/nios2-elf/lib\libc.a(lib_a-vfprintf.o)
 .text          0x000000001010654c        0x0 x:/quartus/18.1/nios2eds/bin/gnu/h-x86_64-mingw32/bin/../lib/gcc/nios2-elf/5.3.0/../../../../../H-x86_64-mingw32/nios2-elf/lib\libc.a(lib_a-wbuf.o)
 .text.__swbuf_r
                0x000000001010654c      0x140 x:/quartus/18.1/nios2eds/bin/gnu/h-x86_64-mingw32/bin/../lib/gcc/nios2-elf/5.3.0/../../../../../H-x86_64-mingw32/nios2-elf/lib\libc.a(lib_a-wbuf.o)
                0x000000001010654c                __swbuf_r
 .text.__swbuf  0x000000001010668c       0x18 x:/quartus/18.1/nios2eds/bin/gnu/h-x86_64-mingw32/bin/../lib/gcc/nios2-elf/5.3.0/../../../../../H-x86_64-mingw32/nios2-elf/lib\libc.a(lib_a-wbuf.o)
                0x000000001010668c                __swbuf
 .text          0x00000000101066a4        0x0 x:/quartus/18.1/nios2eds/bin/gnu/h-x86_64-mingw32/bin/../lib/gcc/nios2-elf/5.3.0/../../../../../H-x86_64-mingw32/nios2-elf/lib\libc.a(lib_a-writer.o)
 .text._write_r
                0x00000000101066a4       0x60 x:/quartus/18.1/nios2eds/bin/gnu/h-x86_64-mingw32/bin/../lib/gcc/nios2-elf/5.3.0/../../../../../H-x86_64-mingw32/nios2-elf/lib\libc.a(lib_a-writer.o)
                0x00000000101066a4                _write_r
 .text          0x0000000010106704        0x0 x:/quartus/18.1/nios2eds/bin/gnu/h-x86_64-mingw32/bin/../lib/gcc/nios2-elf/5.3.0/../../../../../H-x86_64-mingw32/nios2-elf/lib\libc.a(lib_a-wsetup.o)
 .text.__swsetup_r
                0x0000000010106704      0x154 x:/quartus/18.1/nios2eds/bin/gnu/h-x86_64-mingw32/bin/../lib/gcc/nios2-elf/5.3.0/../../../../../H-x86_64-mingw32/nios2-elf/lib\libc.a(lib_a-wsetup.o)
                0x0000000010106704                __swsetup_r
 .text          0x0000000010106858        0x0 x:/quartus/18.1/nios2eds/bin/gnu/h-x86_64-mingw32/bin/../lib/gcc/nios2-elf/5.3.0/../../../../../H-x86_64-mingw32/nios2-elf/lib\libc.a(closer.o)
 .text._close_r
                0x0000000010106858       0x54 x:/quartus/18.1/nios2eds/bin/gnu/h-x86_64-mingw32/bin/../lib/gcc/nios2-elf/5.3.0/../../../../../H-x86_64-mingw32/nios2-elf/lib\libc.a(closer.o)
                0x0000000010106858                _close_r
 .text          0x00000000101068ac        0x0 x:/quartus/18.1/nios2eds/bin/gnu/h-x86_64-mingw32/bin/../lib/gcc/nios2-elf/5.3.0/../../../../../H-x86_64-mingw32/nios2-elf/lib\libc.a(lib_a-dtoa.o)
 .text.quorem   0x00000000101068ac      0x200 x:/quartus/18.1/nios2eds/bin/gnu/h-x86_64-mingw32/bin/../lib/gcc/nios2-elf/5.3.0/../../../../../H-x86_64-mingw32/nios2-elf/lib\libc.a(lib_a-dtoa.o)
 .text._dtoa_r  0x0000000010106aac     0x1688 x:/quartus/18.1/nios2eds/bin/gnu/h-x86_64-mingw32/bin/../lib/gcc/nios2-elf/5.3.0/../../../../../H-x86_64-mingw32/nios2-elf/lib\libc.a(lib_a-dtoa.o)
                0x0000000010106aac                _dtoa_r
 .text          0x0000000010108134        0x0 x:/quartus/18.1/nios2eds/bin/gnu/h-x86_64-mingw32/bin/../lib/gcc/nios2-elf/5.3.0/../../../../../H-x86_64-mingw32/nios2-elf/lib\libc.a(lib_a-flags.o)
 .text.__sflags
                0x0000000010108134       0xac x:/quartus/18.1/nios2eds/bin/gnu/h-x86_64-mingw32/bin/../lib/gcc/nios2-elf/5.3.0/../../../../../H-x86_64-mingw32/nios2-elf/lib\libc.a(lib_a-flags.o)
                0x0000000010108134                __sflags
 .text          0x00000000101081e0        0x0 x:/quartus/18.1/nios2eds/bin/gnu/h-x86_64-mingw32/bin/../lib/gcc/nios2-elf/5.3.0/../../../../../H-x86_64-mingw32/nios2-elf/lib\libc.a(lib_a-fvwrite.o)
 .text.__sfvwrite_r
                0x00000000101081e0      0x4bc x:/quartus/18.1/nios2eds/bin/gnu/h-x86_64-mingw32/bin/../lib/gcc/nios2-elf/5.3.0/../../../../../H-x86_64-mingw32/nios2-elf/lib\libc.a(lib_a-fvwrite.o)
                0x00000000101081e0                __sfvwrite_r
 .text          0x000000001010869c        0x0 x:/quartus/18.1/nios2eds/bin/gnu/h-x86_64-mingw32/bin/../lib/gcc/nios2-elf/5.3.0/../../../../../H-x86_64-mingw32/nios2-elf/lib\libc.a(lib_a-isattyr.o)
 .text._isatty_r
                0x000000001010869c       0x54 x:/quartus/18.1/nios2eds/bin/gnu/h-x86_64-mingw32/bin/../lib/gcc/nios2-elf/5.3.0/../../../../../H-x86_64-mingw32/nios2-elf/lib\libc.a(lib_a-isattyr.o)
                0x000000001010869c                _isatty_r
 .text          0x00000000101086f0        0x0 x:/quartus/18.1/nios2eds/bin/gnu/h-x86_64-mingw32/bin/../lib/gcc/nios2-elf/5.3.0/../../../../../H-x86_64-mingw32/nios2-elf/lib\libc.a(lib_a-locale.o)
 .text._setlocale_r
                0x00000000101086f0       0x7c x:/quartus/18.1/nios2eds/bin/gnu/h-x86_64-mingw32/bin/../lib/gcc/nios2-elf/5.3.0/../../../../../H-x86_64-mingw32/nios2-elf/lib\libc.a(lib_a-locale.o)
                0x00000000101086f0                _setlocale_r
 .text.__locale_charset
                0x000000001010876c        0xc x:/quartus/18.1/nios2eds/bin/gnu/h-x86_64-mingw32/bin/../lib/gcc/nios2-elf/5.3.0/../../../../../H-x86_64-mingw32/nios2-elf/lib\libc.a(lib_a-locale.o)
                0x000000001010876c                __locale_charset
 .text.__locale_mb_cur_max
                0x0000000010108778       0x10 x:/quartus/18.1/nios2eds/bin/gnu/h-x86_64-mingw32/bin/../lib/gcc/nios2-elf/5.3.0/../../../../../H-x86_64-mingw32/nios2-elf/lib\libc.a(lib_a-locale.o)
                0x0000000010108778                __locale_mb_cur_max
 .text.__locale_msgcharset
                0x0000000010108788        0xc x:/quartus/18.1/nios2eds/bin/gnu/h-x86_64-mingw32/bin/../lib/gcc/nios2-elf/5.3.0/../../../../../H-x86_64-mingw32/nios2-elf/lib\libc.a(lib_a-locale.o)
                0x0000000010108788                __locale_msgcharset
 .text.__locale_cjk_lang
                0x0000000010108794        0x8 x:/quartus/18.1/nios2eds/bin/gnu/h-x86_64-mingw32/bin/../lib/gcc/nios2-elf/5.3.0/../../../../../H-x86_64-mingw32/nios2-elf/lib\libc.a(lib_a-locale.o)
                0x0000000010108794                __locale_cjk_lang
 .text._localeconv_r
                0x000000001010879c        0xc x:/quartus/18.1/nios2eds/bin/gnu/h-x86_64-mingw32/bin/../lib/gcc/nios2-elf/5.3.0/../../../../../H-x86_64-mingw32/nios2-elf/lib\libc.a(lib_a-locale.o)
                0x000000001010879c                _localeconv_r
 .text.setlocale
                0x00000000101087a8       0x18 x:/quartus/18.1/nios2eds/bin/gnu/h-x86_64-mingw32/bin/../lib/gcc/nios2-elf/5.3.0/../../../../../H-x86_64-mingw32/nios2-elf/lib\libc.a(lib_a-locale.o)
                0x00000000101087a8                setlocale
 .text.localeconv
                0x00000000101087c0        0xc x:/quartus/18.1/nios2eds/bin/gnu/h-x86_64-mingw32/bin/../lib/gcc/nios2-elf/5.3.0/../../../../../H-x86_64-mingw32/nios2-elf/lib\libc.a(lib_a-locale.o)
                0x00000000101087c0                localeconv
 .text          0x00000000101087cc        0x0 x:/quartus/18.1/nios2eds/bin/gnu/h-x86_64-mingw32/bin/../lib/gcc/nios2-elf/5.3.0/../../../../../H-x86_64-mingw32/nios2-elf/lib\libc.a(lib_a-lseekr.o)
 .text._lseek_r
                0x00000000101087cc       0x60 x:/quartus/18.1/nios2eds/bin/gnu/h-x86_64-mingw32/bin/../lib/gcc/nios2-elf/5.3.0/../../../../../H-x86_64-mingw32/nios2-elf/lib\libc.a(lib_a-lseekr.o)
                0x00000000101087cc                _lseek_r
 .text          0x000000001010882c        0x0 x:/quartus/18.1/nios2eds/bin/gnu/h-x86_64-mingw32/bin/../lib/gcc/nios2-elf/5.3.0/../../../../../H-x86_64-mingw32/nios2-elf/lib\libc.a(lib_a-memchr.o)
 .text.memchr   0x000000001010882c       0xe4 x:/quartus/18.1/nios2eds/bin/gnu/h-x86_64-mingw32/bin/../lib/gcc/nios2-elf/5.3.0/../../../../../H-x86_64-mingw32/nios2-elf/lib\libc.a(lib_a-memchr.o)
                0x000000001010882c                memchr
 .text          0x0000000010108910        0x0 x:/quartus/18.1/nios2eds/bin/gnu/h-x86_64-mingw32/bin/../lib/gcc/nios2-elf/5.3.0/../../../../../H-x86_64-mingw32/nios2-elf/lib\libc.a(lib_a-memcpy.o)
 .text.memcpy   0x0000000010108910      0x148 x:/quartus/18.1/nios2eds/bin/gnu/h-x86_64-mingw32/bin/../lib/gcc/nios2-elf/5.3.0/../../../../../H-x86_64-mingw32/nios2-elf/lib\libc.a(lib_a-memcpy.o)
                0x0000000010108910                memcpy
 .text          0x0000000010108a58        0x0 x:/quartus/18.1/nios2eds/bin/gnu/h-x86_64-mingw32/bin/../lib/gcc/nios2-elf/5.3.0/../../../../../H-x86_64-mingw32/nios2-elf/lib\libc.a(lib_a-memmove.o)
 .text.memmove  0x0000000010108a58      0x15c x:/quartus/18.1/nios2eds/bin/gnu/h-x86_64-mingw32/bin/../lib/gcc/nios2-elf/5.3.0/../../../../../H-x86_64-mingw32/nios2-elf/lib\libc.a(lib_a-memmove.o)
                0x0000000010108a58                memmove
 .text          0x0000000010108bb4        0x0 x:/quartus/18.1/nios2eds/bin/gnu/h-x86_64-mingw32/bin/../lib/gcc/nios2-elf/5.3.0/../../../../../H-x86_64-mingw32/nios2-elf/lib\libc.a(lib_a-mprec.o)
 .text._Balloc  0x0000000010108bb4       0xa8 x:/quartus/18.1/nios2eds/bin/gnu/h-x86_64-mingw32/bin/../lib/gcc/nios2-elf/5.3.0/../../../../../H-x86_64-mingw32/nios2-elf/lib\libc.a(lib_a-mprec.o)
                0x0000000010108bb4                _Balloc
 .text._Bfree   0x0000000010108c5c       0x28 x:/quartus/18.1/nios2eds/bin/gnu/h-x86_64-mingw32/bin/../lib/gcc/nios2-elf/5.3.0/../../../../../H-x86_64-mingw32/nios2-elf/lib\libc.a(lib_a-mprec.o)
                0x0000000010108c5c                _Bfree
 .text.__multadd
                0x0000000010108c84      0x120 x:/quartus/18.1/nios2eds/bin/gnu/h-x86_64-mingw32/bin/../lib/gcc/nios2-elf/5.3.0/../../../../../H-x86_64-mingw32/nios2-elf/lib\libc.a(lib_a-mprec.o)
                0x0000000010108c84                __multadd
 .text.__s2b    0x0000000010108da4      0x104 x:/quartus/18.1/nios2eds/bin/gnu/h-x86_64-mingw32/bin/../lib/gcc/nios2-elf/5.3.0/../../../../../H-x86_64-mingw32/nios2-elf/lib\libc.a(lib_a-mprec.o)
                0x0000000010108da4                __s2b
 .text.__hi0bits
                0x0000000010108ea8       0x68 x:/quartus/18.1/nios2eds/bin/gnu/h-x86_64-mingw32/bin/../lib/gcc/nios2-elf/5.3.0/../../../../../H-x86_64-mingw32/nios2-elf/lib\libc.a(lib_a-mprec.o)
                0x0000000010108ea8                __hi0bits
 .text.__lo0bits
                0x0000000010108f10       0xb0 x:/quartus/18.1/nios2eds/bin/gnu/h-x86_64-mingw32/bin/../lib/gcc/nios2-elf/5.3.0/../../../../../H-x86_64-mingw32/nios2-elf/lib\libc.a(lib_a-mprec.o)
                0x0000000010108f10                __lo0bits
 .text.__i2b    0x0000000010108fc0       0x3c x:/quartus/18.1/nios2eds/bin/gnu/h-x86_64-mingw32/bin/../lib/gcc/nios2-elf/5.3.0/../../../../../H-x86_64-mingw32/nios2-elf/lib\libc.a(lib_a-mprec.o)
                0x0000000010108fc0                __i2b
 .text.__multiply
                0x0000000010108ffc      0x1f8 x:/quartus/18.1/nios2eds/bin/gnu/h-x86_64-mingw32/bin/../lib/gcc/nios2-elf/5.3.0/../../../../../H-x86_64-mingw32/nios2-elf/lib\libc.a(lib_a-mprec.o)
                0x0000000010108ffc                __multiply
 .text.__pow5mult
                0x00000000101091f4      0x140 x:/quartus/18.1/nios2eds/bin/gnu/h-x86_64-mingw32/bin/../lib/gcc/nios2-elf/5.3.0/../../../../../H-x86_64-mingw32/nios2-elf/lib\libc.a(lib_a-mprec.o)
                0x00000000101091f4                __pow5mult
 .text.__lshift
                0x0000000010109334      0x148 x:/quartus/18.1/nios2eds/bin/gnu/h-x86_64-mingw32/bin/../lib/gcc/nios2-elf/5.3.0/../../../../../H-x86_64-mingw32/nios2-elf/lib\libc.a(lib_a-mprec.o)
                0x0000000010109334                __lshift
 .text.__mcmp   0x000000001010947c       0x60 x:/quartus/18.1/nios2eds/bin/gnu/h-x86_64-mingw32/bin/../lib/gcc/nios2-elf/5.3.0/../../../../../H-x86_64-mingw32/nios2-elf/lib\libc.a(lib_a-mprec.o)
                0x000000001010947c                __mcmp
 .text.__mdiff  0x00000000101094dc      0x1fc x:/quartus/18.1/nios2eds/bin/gnu/h-x86_64-mingw32/bin/../lib/gcc/nios2-elf/5.3.0/../../../../../H-x86_64-mingw32/nios2-elf/lib\libc.a(lib_a-mprec.o)
                0x00000000101094dc                __mdiff
 .text.__ulp    0x00000000101096d8       0x64 x:/quartus/18.1/nios2eds/bin/gnu/h-x86_64-mingw32/bin/../lib/gcc/nios2-elf/5.3.0/../../../../../H-x86_64-mingw32/nios2-elf/lib\libc.a(lib_a-mprec.o)
                0x00000000101096d8                __ulp
 .text.__b2d    0x000000001010973c      0x10c x:/quartus/18.1/nios2eds/bin/gnu/h-x86_64-mingw32/bin/../lib/gcc/nios2-elf/5.3.0/../../../../../H-x86_64-mingw32/nios2-elf/lib\libc.a(lib_a-mprec.o)
                0x000000001010973c                __b2d
 .text.__d2b    0x0000000010109848      0x14c x:/quartus/18.1/nios2eds/bin/gnu/h-x86_64-mingw32/bin/../lib/gcc/nios2-elf/5.3.0/../../../../../H-x86_64-mingw32/nios2-elf/lib\libc.a(lib_a-mprec.o)
                0x0000000010109848                __d2b
 .text.__ratio  0x0000000010109994       0xa4 x:/quartus/18.1/nios2eds/bin/gnu/h-x86_64-mingw32/bin/../lib/gcc/nios2-elf/5.3.0/../../../../../H-x86_64-mingw32/nios2-elf/lib\libc.a(lib_a-mprec.o)
                0x0000000010109994                __ratio
 .text._mprec_log10
                0x0000000010109a38       0x74 x:/quartus/18.1/nios2eds/bin/gnu/h-x86_64-mingw32/bin/../lib/gcc/nios2-elf/5.3.0/../../../../../H-x86_64-mingw32/nios2-elf/lib\libc.a(lib_a-mprec.o)
                0x0000000010109a38                _mprec_log10
 .text.__copybits
                0x0000000010109aac       0x78 x:/quartus/18.1/nios2eds/bin/gnu/h-x86_64-mingw32/bin/../lib/gcc/nios2-elf/5.3.0/../../../../../H-x86_64-mingw32/nios2-elf/lib\libc.a(lib_a-mprec.o)
                0x0000000010109aac                __copybits
 .text.__any_on
                0x0000000010109b24       0x8c x:/quartus/18.1/nios2eds/bin/gnu/h-x86_64-mingw32/bin/../lib/gcc/nios2-elf/5.3.0/../../../../../H-x86_64-mingw32/nios2-elf/lib\libc.a(lib_a-mprec.o)
                0x0000000010109b24                __any_on
 .text          0x0000000010109bb0        0x0 x:/quartus/18.1/nios2eds/bin/gnu/h-x86_64-mingw32/bin/../lib/gcc/nios2-elf/5.3.0/../../../../../H-x86_64-mingw32/nios2-elf/lib\libc.a(lib_a-readr.o)
 .text._read_r  0x0000000010109bb0       0x60 x:/quartus/18.1/nios2eds/bin/gnu/h-x86_64-mingw32/bin/../lib/gcc/nios2-elf/5.3.0/../../../../../H-x86_64-mingw32/nios2-elf/lib\libc.a(lib_a-readr.o)
                0x0000000010109bb0                _read_r
 .text          0x0000000010109c10        0x0 x:/quartus/18.1/nios2eds/bin/gnu/h-x86_64-mingw32/bin/../lib/gcc/nios2-elf/5.3.0/../../../../../H-x86_64-mingw32/nios2-elf/lib\libc.a(lib_a-reallocr.o)
 .text._realloc_r
                0x0000000010109c10      0x564 x:/quartus/18.1/nios2eds/bin/gnu/h-x86_64-mingw32/bin/../lib/gcc/nios2-elf/5.3.0/../../../../../H-x86_64-mingw32/nios2-elf/lib\libc.a(lib_a-reallocr.o)
                0x0000000010109c10                _realloc_r
 .text          0x000000001010a174        0x0 x:/quartus/18.1/nios2eds/bin/gnu/h-x86_64-mingw32/bin/../lib/gcc/nios2-elf/5.3.0/../../../../../H-x86_64-mingw32/nios2-elf/lib\libc.a(lib_a-s_fpclassify.o)
 .text.__fpclassifyd
                0x000000001010a174       0x74 x:/quartus/18.1/nios2eds/bin/gnu/h-x86_64-mingw32/bin/../lib/gcc/nios2-elf/5.3.0/../../../../../H-x86_64-mingw32/nios2-elf/lib\libc.a(lib_a-s_fpclassify.o)
                0x000000001010a174                __fpclassifyd
 .text          0x000000001010a1e8        0x0 x:/quartus/18.1/nios2eds/bin/gnu/h-x86_64-mingw32/bin/../lib/gcc/nios2-elf/5.3.0/../../../../../H-x86_64-mingw32/nios2-elf/lib\libc.a(lib_a-strcmp.o)
 .text.strcmp   0x000000001010a1e8       0xdc x:/quartus/18.1/nios2eds/bin/gnu/h-x86_64-mingw32/bin/../lib/gcc/nios2-elf/5.3.0/../../../../../H-x86_64-mingw32/nios2-elf/lib\libc.a(lib_a-strcmp.o)
                0x000000001010a1e8                strcmp
 .text          0x000000001010a2c4        0x0 x:/quartus/18.1/nios2eds/bin/gnu/h-x86_64-mingw32/bin/../lib/gcc/nios2-elf/5.3.0/../../../../../H-x86_64-mingw32/nios2-elf/lib\libc.a(lib_a-vfiprintf.o)
 .text.__sprint_r.part.0
                0x000000001010a2c4       0xfc x:/quartus/18.1/nios2eds/bin/gnu/h-x86_64-mingw32/bin/../lib/gcc/nios2-elf/5.3.0/../../../../../H-x86_64-mingw32/nios2-elf/lib\libc.a(lib_a-vfiprintf.o)
 .text.__sprint_r
                0x000000001010a3c0       0x18 x:/quartus/18.1/nios2eds/bin/gnu/h-x86_64-mingw32/bin/../lib/gcc/nios2-elf/5.3.0/../../../../../H-x86_64-mingw32/nios2-elf/lib\libc.a(lib_a-vfiprintf.o)
                0x000000001010a3c0                __sprint_r
 .text.___vfiprintf_internal_r
                0x000000001010a3d8     0x145c x:/quartus/18.1/nios2eds/bin/gnu/h-x86_64-mingw32/bin/../lib/gcc/nios2-elf/5.3.0/../../../../../H-x86_64-mingw32/nios2-elf/lib\libc.a(lib_a-vfiprintf.o)
                0x000000001010a3d8                ___vfiprintf_internal_r
 .text.__vfiprintf_internal
                0x000000001010b834       0x1c x:/quartus/18.1/nios2eds/bin/gnu/h-x86_64-mingw32/bin/../lib/gcc/nios2-elf/5.3.0/../../../../../H-x86_64-mingw32/nios2-elf/lib\libc.a(lib_a-vfiprintf.o)
                0x000000001010b834                __vfiprintf_internal
 .text.__sbprintf
                0x000000001010b850       0xbc x:/quartus/18.1/nios2eds/bin/gnu/h-x86_64-mingw32/bin/../lib/gcc/nios2-elf/5.3.0/../../../../../H-x86_64-mingw32/nios2-elf/lib\libc.a(lib_a-vfiprintf.o)
 .text          0x000000001010b90c        0x0 x:/quartus/18.1/nios2eds/bin/gnu/h-x86_64-mingw32/bin/../lib/gcc/nios2-elf/5.3.0/../../../../../H-x86_64-mingw32/nios2-elf/lib\libc.a(lib_a-callocr.o)
 .text._calloc_r
                0x000000001010b90c       0xc4 x:/quartus/18.1/nios2eds/bin/gnu/h-x86_64-mingw32/bin/../lib/gcc/nios2-elf/5.3.0/../../../../../H-x86_64-mingw32/nios2-elf/lib\libc.a(lib_a-callocr.o)
                0x000000001010b90c                _calloc_r
 .text          0x000000001010b9d0        0x0 x:/quartus/18.1/nios2eds/bin/gnu/h-x86_64-mingw32/bin/../lib/gcc/nios2-elf/5.3.0/../../../../../H-x86_64-mingw32/nios2-elf/lib\libc.a(lib_a-fputwc.o)
 .text.__fputwc
                0x000000001010b9d0      0x164 x:/quartus/18.1/nios2eds/bin/gnu/h-x86_64-mingw32/bin/../lib/gcc/nios2-elf/5.3.0/../../../../../H-x86_64-mingw32/nios2-elf/lib\libc.a(lib_a-fputwc.o)
                0x000000001010b9d0                __fputwc
 .text._fputwc_r
                0x000000001010bb34       0x24 x:/quartus/18.1/nios2eds/bin/gnu/h-x86_64-mingw32/bin/../lib/gcc/nios2-elf/5.3.0/../../../../../H-x86_64-mingw32/nios2-elf/lib\libc.a(lib_a-fputwc.o)
                0x000000001010bb34                _fputwc_r
 .text.fputwc   0x000000001010bb58       0x80 x:/quartus/18.1/nios2eds/bin/gnu/h-x86_64-mingw32/bin/../lib/gcc/nios2-elf/5.3.0/../../../../../H-x86_64-mingw32/nios2-elf/lib\libc.a(lib_a-fputwc.o)
                0x000000001010bb58                fputwc
 .text          0x000000001010bbd8        0x0 x:/quartus/18.1/nios2eds/bin/gnu/h-x86_64-mingw32/bin/../lib/gcc/nios2-elf/5.3.0/../../../../../H-x86_64-mingw32/nios2-elf/lib\libc.a(lib_a-wcrtomb.o)
 .text._wcrtomb_r
                0x000000001010bbd8       0x9c x:/quartus/18.1/nios2eds/bin/gnu/h-x86_64-mingw32/bin/../lib/gcc/nios2-elf/5.3.0/../../../../../H-x86_64-mingw32/nios2-elf/lib\libc.a(lib_a-wcrtomb.o)
                0x000000001010bbd8                _wcrtomb_r
 .text.wcrtomb  0x000000001010bc74       0xc0 x:/quartus/18.1/nios2eds/bin/gnu/h-x86_64-mingw32/bin/../lib/gcc/nios2-elf/5.3.0/../../../../../H-x86_64-mingw32/nios2-elf/lib\libc.a(lib_a-wcrtomb.o)
                0x000000001010bc74                wcrtomb
 .text          0x000000001010bd34        0x0 x:/quartus/18.1/nios2eds/bin/gnu/h-x86_64-mingw32/bin/../lib/gcc/nios2-elf/5.3.0/../../../../../H-x86_64-mingw32/nios2-elf/lib\libc.a(lib_a-wctomb_r.o)
 .text.__ascii_wctomb
                0x000000001010bd34       0x30 x:/quartus/18.1/nios2eds/bin/gnu/h-x86_64-mingw32/bin/../lib/gcc/nios2-elf/5.3.0/../../../../../H-x86_64-mingw32/nios2-elf/lib\libc.a(lib_a-wctomb_r.o)
                0x000000001010bd34                __ascii_wctomb
 .text._wctomb_r
                0x000000001010bd64       0x5c x:/quartus/18.1/nios2eds/bin/gnu/h-x86_64-mingw32/bin/../lib/gcc/nios2-elf/5.3.0/../../../../../H-x86_64-mingw32/nios2-elf/lib\libc.a(lib_a-wctomb_r.o)
                0x000000001010bd64                _wctomb_r
 .text          0x000000001010bdc0      0x578 x:/quartus/18.1/nios2eds/bin/gnu/h-x86_64-mingw32/bin/../lib/gcc/nios2-elf/5.3.0\libgcc.a(_udivdi3.o)
                0x000000001010bdc0                __udivdi3
 .text          0x000000001010c338      0x538 x:/quartus/18.1/nios2eds/bin/gnu/h-x86_64-mingw32/bin/../lib/gcc/nios2-elf/5.3.0\libgcc.a(_umoddi3.o)
                0x000000001010c338                __umoddi3
 .text          0x000000001010c870      0x8ac x:/quartus/18.1/nios2eds/bin/gnu/h-x86_64-mingw32/bin/../lib/gcc/nios2-elf/5.3.0\libgcc.a(adddf3.o)
                0x000000001010c870                __adddf3
 .text          0x000000001010d11c      0x8e8 x:/quartus/18.1/nios2eds/bin/gnu/h-x86_64-mingw32/bin/../lib/gcc/nios2-elf/5.3.0\libgcc.a(divdf3.o)
                0x000000001010d11c                __divdf3
 .text          0x000000001010da04       0x88 x:/quartus/18.1/nios2eds/bin/gnu/h-x86_64-mingw32/bin/../lib/gcc/nios2-elf/5.3.0\libgcc.a(eqdf2.o)
                0x000000001010da04                __nedf2
                0x000000001010da04                __eqdf2
 .text          0x000000001010da8c       0xdc x:/quartus/18.1/nios2eds/bin/gnu/h-x86_64-mingw32/bin/../lib/gcc/nios2-elf/5.3.0\libgcc.a(gedf2.o)
                0x000000001010da8c                __gedf2
                0x000000001010da8c                __gtdf2
 .text          0x000000001010db68       0xf4 x:/quartus/18.1/nios2eds/bin/gnu/h-x86_64-mingw32/bin/../lib/gcc/nios2-elf/5.3.0\libgcc.a(ledf2.o)
                0x000000001010db68                __ledf2
                0x000000001010db68                __ltdf2
 .text          0x000000001010dc5c      0x718 x:/quartus/18.1/nios2eds/bin/gnu/h-x86_64-mingw32/bin/../lib/gcc/nios2-elf/5.3.0\libgcc.a(muldf3.o)
                0x000000001010dc5c                __muldf3
 .text          0x000000001010e374      0x8fc x:/quartus/18.1/nios2eds/bin/gnu/h-x86_64-mingw32/bin/../lib/gcc/nios2-elf/5.3.0\libgcc.a(subdf3.o)
                0x000000001010e374                __subdf3
 .text          0x000000001010ec70       0x80 x:/quartus/18.1/nios2eds/bin/gnu/h-x86_64-mingw32/bin/../lib/gcc/nios2-elf/5.3.0\libgcc.a(fixdfsi.o)
                0x000000001010ec70                __fixdfsi
 .text          0x000000001010ecf0       0xdc x:/quartus/18.1/nios2eds/bin/gnu/h-x86_64-mingw32/bin/../lib/gcc/nios2-elf/5.3.0\libgcc.a(floatsidf.o)
                0x000000001010ecf0                __floatsidf
 .text          0x000000001010edcc       0xa8 x:/quartus/18.1/nios2eds/bin/gnu/h-x86_64-mingw32/bin/../lib/gcc/nios2-elf/5.3.0\libgcc.a(floatunsidf.o)
                0x000000001010edcc                __floatunsidf
 .text          0x000000001010ee74        0x0 x:/quartus/18.1/nios2eds/bin/gnu/h-x86_64-mingw32/bin/../lib/gcc/nios2-elf/5.3.0\libgcc.a(_clz.o)
 .text          0x000000001010ee74       0x64 x:/quartus/18.1/nios2eds/bin/gnu/h-x86_64-mingw32/bin/../lib/gcc/nios2-elf/5.3.0\libgcc.a(_clzsi2.o)
                0x000000001010ee74                __clzsi2
 .text          0x000000001010eed8      0x10c C:/Users/test/Documents/EPFL/MA1/Embedded/Lab4/lab_4_V2/sw/lab4_cam1_bsp/\libhal_bsp.a(alt_close.o)
                0x000000001010ef14                close
 .text          0x000000001010efe4       0x2c C:/Users/test/Documents/EPFL/MA1/Embedded/Lab4/lab_4_V2/sw/lab4_cam1_bsp/\libhal_bsp.a(alt_dev.o)
 .text          0x000000001010f010        0x0 C:/Users/test/Documents/EPFL/MA1/Embedded/Lab4/lab_4_V2/sw/lab4_cam1_bsp/\libhal_bsp.a(alt_errno.o)
 .text          0x000000001010f010       0xec C:/Users/test/Documents/EPFL/MA1/Embedded/Lab4/lab_4_V2/sw/lab4_cam1_bsp/\libhal_bsp.a(alt_fstat.o)
                0x000000001010f04c                fstat
 .text          0x000000001010f0fc       0xe0 C:/Users/test/Documents/EPFL/MA1/Embedded/Lab4/lab_4_V2/sw/lab4_cam1_bsp/\libhal_bsp.a(alt_isatty.o)
                0x000000001010f138                isatty
 .text          0x000000001010f1dc       0xec C:/Users/test/Documents/EPFL/MA1/Embedded/Lab4/lab_4_V2/sw/lab4_cam1_bsp/\libhal_bsp.a(alt_load.o)
                0x000000001010f244                alt_load
 .text          0x000000001010f2c8      0x110 C:/Users/test/Documents/EPFL/MA1/Embedded/Lab4/lab_4_V2/sw/lab4_cam1_bsp/\libhal_bsp.a(alt_lseek.o)
                0x000000001010f304                lseek
 .text          0x000000001010f3d8       0x7c C:/Users/test/Documents/EPFL/MA1/Embedded/Lab4/lab_4_V2/sw/lab4_cam1_bsp/\libhal_bsp.a(alt_main.o)
                0x000000001010f3d8                alt_main
 .text          0x000000001010f454       0x48 C:/Users/test/Documents/EPFL/MA1/Embedded/Lab4/lab_4_V2/sw/lab4_cam1_bsp/\libhal_bsp.a(alt_malloc_lock.o)
                0x000000001010f454                __malloc_lock
                0x000000001010f478                __malloc_unlock
 .text          0x000000001010f49c      0x254 C:/Users/test/Documents/EPFL/MA1/Embedded/Lab4/lab_4_V2/sw/lab4_cam1_bsp/\libhal_bsp.a(alt_open.o)
                0x000000001010f59c                open
 .text          0x000000001010f6f0      0x138 C:/Users/test/Documents/EPFL/MA1/Embedded/Lab4/lab_4_V2/sw/lab4_cam1_bsp/\libhal_bsp.a(alt_read.o)
                0x000000001010f72c                read
 .text          0x000000001010f828       0x64 C:/Users/test/Documents/EPFL/MA1/Embedded/Lab4/lab_4_V2/sw/lab4_cam1_bsp/\libhal_bsp.a(alt_release_fd.o)
                0x000000001010f828                alt_release_fd
 .text          0x000000001010f88c       0xb0 C:/Users/test/Documents/EPFL/MA1/Embedded/Lab4/lab_4_V2/sw/lab4_cam1_bsp/\libhal_bsp.a(alt_sbrk.o)
                0x000000001010f88c                sbrk
 .text          0x000000001010f93c       0x30 C:/Users/test/Documents/EPFL/MA1/Embedded/Lab4/lab_4_V2/sw/lab4_cam1_bsp/\libhal_bsp.a(alt_usleep.o)
                0x000000001010f93c                usleep
 .text          0x000000001010f96c      0x134 C:/Users/test/Documents/EPFL/MA1/Embedded/Lab4/lab_4_V2/sw/lab4_cam1_bsp/\libhal_bsp.a(alt_write.o)
                0x000000001010f9a8                write
 .text          0x000000001010faa0       0xc0 C:/Users/test/Documents/EPFL/MA1/Embedded/Lab4/lab_4_V2/sw/lab4_cam1_bsp/\libhal_bsp.a(alt_sys_init.o)
                0x000000001010fad4                alt_irq_init
                0x000000001010fb0c                alt_sys_init
 .text          0x000000001010fb60      0x164 C:/Users/test/Documents/EPFL/MA1/Embedded/Lab4/lab_4_V2/sw/lab4_cam1_bsp/\libhal_bsp.a(altera_avalon_jtag_uart_fd.o)
                0x000000001010fb60                altera_avalon_jtag_uart_read_fd
                0x000000001010fbc0                altera_avalon_jtag_uart_write_fd
                0x000000001010fc20                altera_avalon_jtag_uart_close_fd
                0x000000001010fc70                altera_avalon_jtag_uart_ioctl_fd
 .text          0x000000001010fcc4      0x3d4 C:/Users/test/Documents/EPFL/MA1/Embedded/Lab4/lab_4_V2/sw/lab4_cam1_bsp/\libhal_bsp.a(altera_avalon_jtag_uart_init.o)
                0x000000001010fcc4                altera_avalon_jtag_uart_init
                0x0000000010110030                altera_avalon_jtag_uart_close
 .text          0x0000000010110098       0xf0 C:/Users/test/Documents/EPFL/MA1/Embedded/Lab4/lab_4_V2/sw/lab4_cam1_bsp/\libhal_bsp.a(altera_avalon_jtag_uart_ioctl.o)
                0x0000000010110098                altera_avalon_jtag_uart_ioctl
 .text          0x0000000010110188      0x21c C:/Users/test/Documents/EPFL/MA1/Embedded/Lab4/lab_4_V2/sw/lab4_cam1_bsp/\libhal_bsp.a(altera_avalon_jtag_uart_read.o)
                0x0000000010110188                altera_avalon_jtag_uart_read
 .text          0x00000000101103a4      0x224 C:/Users/test/Documents/EPFL/MA1/Embedded/Lab4/lab_4_V2/sw/lab4_cam1_bsp/\libhal_bsp.a(altera_avalon_jtag_uart_write.o)
                0x00000000101103a4                altera_avalon_jtag_uart_write
 .text          0x00000000101105c8      0x484 C:/Users/test/Documents/EPFL/MA1/Embedded/Lab4/lab_4_V2/sw/lab4_cam1_bsp/\libhal_bsp.a(altera_hostfs.o)
                0x00000000101105c8                alt_hostfs_open
                0x00000000101106e4                alt_hostfs_close
                0x0000000010110728                alt_hostfs_read
                0x0000000010110794                alt_hostfs_write
                0x0000000010110800                alt_hostfs_seek
                0x0000000010110868                alt_hostfs_fstat
 .text          0x0000000010110a4c      0x12c C:/Users/test/Documents/EPFL/MA1/Embedded/Lab4/lab_4_V2/sw/lab4_cam1_bsp/\libhal_bsp.a(alt_alarm_start.o)
                0x0000000010110a4c                alt_alarm_start
 .text          0x0000000010110b78      0x158 C:/Users/test/Documents/EPFL/MA1/Embedded/Lab4/lab_4_V2/sw/lab4_cam1_bsp/\libhal_bsp.a(alt_busy_sleep.o)
                0x0000000010110b78                alt_busy_sleep
 .text          0x0000000010110cd0       0x48 C:/Users/test/Documents/EPFL/MA1/Embedded/Lab4/lab_4_V2/sw/lab4_cam1_bsp/\libhal_bsp.a(alt_dcache_flush_all.o)
                0x0000000010110cd0                alt_dcache_flush_all
 .text          0x0000000010110d18       0xe0 C:/Users/test/Documents/EPFL/MA1/Embedded/Lab4/lab_4_V2/sw/lab4_cam1_bsp/\libhal_bsp.a(alt_dev_llist_insert.o)
                0x0000000010110d54                alt_dev_llist_insert
 .text          0x0000000010110df8       0x60 C:/Users/test/Documents/EPFL/MA1/Embedded/Lab4/lab_4_V2/sw/lab4_cam1_bsp/\libhal_bsp.a(alt_do_ctors.o)
                0x0000000010110df8                _do_ctors
 .text          0x0000000010110e58       0x60 C:/Users/test/Documents/EPFL/MA1/Embedded/Lab4/lab_4_V2/sw/lab4_cam1_bsp/\libhal_bsp.a(alt_do_dtors.o)
                0x0000000010110e58                _do_dtors
 .text          0x0000000010110eb8       0x90 C:/Users/test/Documents/EPFL/MA1/Embedded/Lab4/lab_4_V2/sw/lab4_cam1_bsp/\libhal_bsp.a(alt_find_dev.o)
                0x0000000010110eb8                alt_find_dev
 .text          0x0000000010110f48      0x108 C:/Users/test/Documents/EPFL/MA1/Embedded/Lab4/lab_4_V2/sw/lab4_cam1_bsp/\libhal_bsp.a(alt_find_file.o)
                0x0000000010110f48                alt_find_file
 .text          0x0000000010111050       0x80 C:/Users/test/Documents/EPFL/MA1/Embedded/Lab4/lab_4_V2/sw/lab4_cam1_bsp/\libhal_bsp.a(alt_fs_reg.o)
                0x0000000010111050                alt_fs_reg
 .text          0x00000000101110d0       0xa4 C:/Users/test/Documents/EPFL/MA1/Embedded/Lab4/lab_4_V2/sw/lab4_cam1_bsp/\libhal_bsp.a(alt_get_fd.o)
                0x00000000101110d0                alt_get_fd
 .text          0x0000000010111174       0x34 C:/Users/test/Documents/EPFL/MA1/Embedded/Lab4/lab_4_V2/sw/lab4_cam1_bsp/\libhal_bsp.a(alt_icache_flush_all.o)
                0x0000000010111174                alt_icache_flush_all
 .text          0x00000000101111a8      0x1b0 C:/Users/test/Documents/EPFL/MA1/Embedded/Lab4/lab_4_V2/sw/lab4_cam1_bsp/\libhal_bsp.a(alt_iic.o)
                0x00000000101111a8                alt_ic_isr_register
                0x00000000101111f8                alt_ic_irq_enable
                0x0000000010111280                alt_ic_irq_disable
                0x000000001011130c                alt_ic_irq_enabled
 .text          0x0000000010111358       0xf0 C:/Users/test/Documents/EPFL/MA1/Embedded/Lab4/lab_4_V2/sw/lab4_cam1_bsp/\libhal_bsp.a(alt_iic_isr_register.o)
                0x0000000010111358                alt_iic_isr_register
 .text          0x0000000010111448      0x140 C:/Users/test/Documents/EPFL/MA1/Embedded/Lab4/lab_4_V2/sw/lab4_cam1_bsp/\libhal_bsp.a(alt_io_redirect.o)
                0x000000001011150c                alt_io_redirect
 .text          0x0000000010111588        0x0 C:/Users/test/Documents/EPFL/MA1/Embedded/Lab4/lab_4_V2/sw/lab4_cam1_bsp/\libhal_bsp.a(alt_irq_entry.o)
 .text          0x0000000010111588        0x0 C:/Users/test/Documents/EPFL/MA1/Embedded/Lab4/lab_4_V2/sw/lab4_cam1_bsp/\libhal_bsp.a(alt_irq_handler.o)
 .text          0x0000000010111588        0x0 C:/Users/test/Documents/EPFL/MA1/Embedded/Lab4/lab_4_V2/sw/lab4_cam1_bsp/\libhal_bsp.a(alt_irq_vars.o)
 .text          0x0000000010111588      0x1a4 C:/Users/test/Documents/EPFL/MA1/Embedded/Lab4/lab_4_V2/sw/lab4_cam1_bsp/\libhal_bsp.a(alt_tick.o)
                0x0000000010111588                alt_alarm_stop
                0x0000000010111624                alt_tick
 .text          0x000000001011172c       0x24 C:/Users/test/Documents/EPFL/MA1/Embedded/Lab4/lab_4_V2/sw/lab4_cam1_bsp/\libhal_bsp.a(altera_nios2_gen2_irq.o)
                0x000000001011172c                altera_nios2_gen2_irq_init
 .text          0x0000000010111750        0x0 C:/Users/test/Documents/EPFL/MA1/Embedded/Lab4/lab_4_V2/sw/lab4_cam1_bsp/\libhal_bsp.a(alt_exception_entry.o)
 .text          0x0000000010111750       0x90 C:/Users/test/Documents/EPFL/MA1/Embedded/Lab4/lab_4_V2/sw/lab4_cam1_bsp/\libhal_bsp.a(alt_icache_flush.o)
                0x0000000010111750                alt_icache_flush
 .text          0x00000000101117e0       0x9c C:/Users/test/Documents/EPFL/MA1/Embedded/Lab4/lab_4_V2/sw/lab4_cam1_bsp/\libhal_bsp.a(alt_instruction_exception_entry.o)
                0x00000000101117e0                alt_exception_cause_generated_bad_addr
 .text          0x000000001011187c        0x0 x:/quartus/18.1/nios2eds/bin/gnu/h-x86_64-mingw32/bin/../lib/gcc/nios2-elf/5.3.0/../../../../../H-x86_64-mingw32/nios2-elf/lib\libc.a(lib_a-atexit.o)
 .text.atexit   0x000000001011187c       0x14 x:/quartus/18.1/nios2eds/bin/gnu/h-x86_64-mingw32/bin/../lib/gcc/nios2-elf/5.3.0/../../../../../H-x86_64-mingw32/nios2-elf/lib\libc.a(lib_a-atexit.o)
                0x000000001011187c                atexit
 .text          0x0000000010111890        0x0 x:/quartus/18.1/nios2eds/bin/gnu/h-x86_64-mingw32/bin/../lib/gcc/nios2-elf/5.3.0/../../../../../H-x86_64-mingw32/nios2-elf/lib\libc.a(lib_a-exit.o)
 .text.exit     0x0000000010111890       0x38 x:/quartus/18.1/nios2eds/bin/gnu/h-x86_64-mingw32/bin/../lib/gcc/nios2-elf/5.3.0/../../../../../H-x86_64-mingw32/nios2-elf/lib\libc.a(lib_a-exit.o)
                0x0000000010111890                exit
 .text          0x00000000101118c8        0x0 x:/quartus/18.1/nios2eds/bin/gnu/h-x86_64-mingw32/bin/../lib/gcc/nios2-elf/5.3.0/../../../../../H-x86_64-mingw32/nios2-elf/lib\libc.a(lib_a-memcmp.o)
 .text.memcmp   0x00000000101118c8       0x7c x:/quartus/18.1/nios2eds/bin/gnu/h-x86_64-mingw32/bin/../lib/gcc/nios2-elf/5.3.0/../../../../../H-x86_64-mingw32/nios2-elf/lib\libc.a(lib_a-memcmp.o)
                0x00000000101118c8                memcmp
 .text          0x0000000010111944        0x0 x:/quartus/18.1/nios2eds/bin/gnu/h-x86_64-mingw32/bin/../lib/gcc/nios2-elf/5.3.0/../../../../../H-x86_64-mingw32/nios2-elf/lib\libc.a(lib_a-__atexit.o)
 .text.__register_exitproc
                0x0000000010111944      0x118 x:/quartus/18.1/nios2eds/bin/gnu/h-x86_64-mingw32/bin/../lib/gcc/nios2-elf/5.3.0/../../../../../H-x86_64-mingw32/nios2-elf/lib\libc.a(lib_a-__atexit.o)
                0x0000000010111944                __register_exitproc
 .text          0x0000000010111a5c        0x0 x:/quartus/18.1/nios2eds/bin/gnu/h-x86_64-mingw32/bin/../lib/gcc/nios2-elf/5.3.0/../../../../../H-x86_64-mingw32/nios2-elf/lib\libc.a(lib_a-__call_atexit.o)
 .text.__call_exitprocs
                0x0000000010111a5c      0x180 x:/quartus/18.1/nios2eds/bin/gnu/h-x86_64-mingw32/bin/../lib/gcc/nios2-elf/5.3.0/../../../../../H-x86_64-mingw32/nios2-elf/lib\libc.a(lib_a-__call_atexit.o)
                0x0000000010111a5c                __call_exitprocs
 .text          0x0000000010111bdc       0x34 C:/Users/test/Documents/EPFL/MA1/Embedded/Lab4/lab_4_V2/sw/lab4_cam1_bsp/\libhal_bsp.a(alt_exit.o)
                0x0000000010111bdc                _exit
 *(.gnu.warning.*)
 *(.fini)
                [!provide]                        PROVIDE (__etext, ABSOLUTE (.))
                [!provide]                        PROVIDE (_etext, ABSOLUTE (.))
                [!provide]                        PROVIDE (etext, ABSOLUTE (.))
 *(.eh_frame_hdr)
                0x0000000010111c10                . = ALIGN (0x4)
                [!provide]                        PROVIDE (__preinit_array_start, ABSOLUTE (.))
 *(.preinit_array)
                [!provide]                        PROVIDE (__preinit_array_end, ABSOLUTE (.))
                [!provide]                        PROVIDE (__init_array_start, ABSOLUTE (.))
 *(.init_array)
                [!provide]                        PROVIDE (__init_array_end, ABSOLUTE (.))
                [!provide]                        PROVIDE (__fini_array_start, ABSOLUTE (.))
 *(.fini_array)
                [!provide]                        PROVIDE (__fini_array_end, ABSOLUTE (.))
 *(.eh_frame)
 *(.gcc_except_table .gcc_except_table.*)
 *(.dynamic)
                0x0000000010111c10                PROVIDE (__CTOR_LIST__, ABSOLUTE (.))
 *(.ctors)
 *(SORT(.ctors.*))
                0x0000000010111c10                PROVIDE (__CTOR_END__, ABSOLUTE (.))
                0x0000000010111c10                PROVIDE (__DTOR_LIST__, ABSOLUTE (.))
 *(.dtors)
 *(SORT(.dtors.*))
                0x0000000010111c10                PROVIDE (__DTOR_END__, ABSOLUTE (.))
 *(.jcr)
                0x0000000010111c10                . = ALIGN (0x4)

.rodata         0x0000000010111c10      0x3a8
                0x0000000010111c10                PROVIDE (__ram_rodata_start, ABSOLUTE (.))
                0x0000000010111c10                . = ALIGN (0x4)
 *(.rodata .rodata.* .gnu.linkonce.r.*)
 .rodata        0x0000000010111c10       0x99 obj/default/hello_world.o
 *fill*         0x0000000010111ca9        0x3 
 .rodata.str1.4
                0x0000000010111cac        0x2 x:/quartus/18.1/nios2eds/bin/gnu/h-x86_64-mingw32/bin/../lib/gcc/nios2-elf/5.3.0/../../../../../H-x86_64-mingw32/nios2-elf/lib\libc.a(lib_a-impure.o)
 *fill*         0x0000000010111cae        0x2 
 .rodata.str1.4
                0x0000000010111cb0        0x2 x:/quartus/18.1/nios2eds/bin/gnu/h-x86_64-mingw32/bin/../lib/gcc/nios2-elf/5.3.0/../../../../../H-x86_64-mingw32/nios2-elf/lib\libc.a(lib_a-puts.o)
 *fill*         0x0000000010111cb2        0x2 
 .rodata.str1.4
                0x0000000010111cb4       0x42 x:/quartus/18.1/nios2eds/bin/gnu/h-x86_64-mingw32/bin/../lib/gcc/nios2-elf/5.3.0/../../../../../H-x86_64-mingw32/nios2-elf/lib\libc.a(lib_a-vfprintf.o)
 .rodata.zeroes.4404
                0x0000000010111cf6       0x10 x:/quartus/18.1/nios2eds/bin/gnu/h-x86_64-mingw32/bin/../lib/gcc/nios2-elf/5.3.0/../../../../../H-x86_64-mingw32/nios2-elf/lib\libc.a(lib_a-vfprintf.o)
 .rodata.blanks.4403
                0x0000000010111d06       0x10 x:/quartus/18.1/nios2eds/bin/gnu/h-x86_64-mingw32/bin/../lib/gcc/nios2-elf/5.3.0/../../../../../H-x86_64-mingw32/nios2-elf/lib\libc.a(lib_a-vfprintf.o)
 *fill*         0x0000000010111d16        0x2 
 .rodata.str1.4
                0x0000000010111d18       0x10 x:/quartus/18.1/nios2eds/bin/gnu/h-x86_64-mingw32/bin/../lib/gcc/nios2-elf/5.3.0/../../../../../H-x86_64-mingw32/nios2-elf/lib\libc.a(lib_a-dtoa.o)
                                         0x12 (size before relaxing)
 .rodata.str1.4
                0x0000000010111d28        0xc x:/quartus/18.1/nios2eds/bin/gnu/h-x86_64-mingw32/bin/../lib/gcc/nios2-elf/5.3.0/../../../../../H-x86_64-mingw32/nios2-elf/lib\libc.a(lib_a-locale.o)
                                         0x12 (size before relaxing)
 .rodata.p05.2768
                0x0000000010111d34        0xc x:/quartus/18.1/nios2eds/bin/gnu/h-x86_64-mingw32/bin/../lib/gcc/nios2-elf/5.3.0/../../../../../H-x86_64-mingw32/nios2-elf/lib\libc.a(lib_a-mprec.o)
 .rodata.__mprec_tinytens
                0x0000000010111d40       0x28 x:/quartus/18.1/nios2eds/bin/gnu/h-x86_64-mingw32/bin/../lib/gcc/nios2-elf/5.3.0/../../../../../H-x86_64-mingw32/nios2-elf/lib\libc.a(lib_a-mprec.o)
                0x0000000010111d40                __mprec_tinytens
 .rodata.__mprec_bigtens
                0x0000000010111d68       0x28 x:/quartus/18.1/nios2eds/bin/gnu/h-x86_64-mingw32/bin/../lib/gcc/nios2-elf/5.3.0/../../../../../H-x86_64-mingw32/nios2-elf/lib\libc.a(lib_a-mprec.o)
                0x0000000010111d68                __mprec_bigtens
 .rodata.__mprec_tens
                0x0000000010111d90       0xc8 x:/quartus/18.1/nios2eds/bin/gnu/h-x86_64-mingw32/bin/../lib/gcc/nios2-elf/5.3.0/../../../../../H-x86_64-mingw32/nios2-elf/lib\libc.a(lib_a-mprec.o)
                0x0000000010111d90                __mprec_tens
 .rodata.str1.4
                0x0000000010111e58       0x2f x:/quartus/18.1/nios2eds/bin/gnu/h-x86_64-mingw32/bin/../lib/gcc/nios2-elf/5.3.0/../../../../../H-x86_64-mingw32/nios2-elf/lib\libc.a(lib_a-vfiprintf.o)
 .rodata.zeroes.4349
                0x0000000010111e58       0x10 x:/quartus/18.1/nios2eds/bin/gnu/h-x86_64-mingw32/bin/../lib/gcc/nios2-elf/5.3.0/../../../../../H-x86_64-mingw32/nios2-elf/lib\libc.a(lib_a-vfiprintf.o)
 .rodata.blanks.4348
                0x0000000010111e68       0x10 x:/quartus/18.1/nios2eds/bin/gnu/h-x86_64-mingw32/bin/../lib/gcc/nios2-elf/5.3.0/../../../../../H-x86_64-mingw32/nios2-elf/lib\libc.a(lib_a-vfiprintf.o)
 .rodata        0x0000000010111e78      0x100 x:/quartus/18.1/nios2eds/bin/gnu/h-x86_64-mingw32/bin/../lib/gcc/nios2-elf/5.3.0\libgcc.a(_clz.o)
                0x0000000010111e78                __clz_tab
 .rodata        0x0000000010111f78        0xa C:/Users/test/Documents/EPFL/MA1/Embedded/Lab4/lab_4_V2/sw/lab4_cam1_bsp/\libhal_bsp.a(alt_dev.o)
 *fill*         0x0000000010111f82        0x2 
 .rodata        0x0000000010111f84       0x11 C:/Users/test/Documents/EPFL/MA1/Embedded/Lab4/lab_4_V2/sw/lab4_cam1_bsp/\libhal_bsp.a(alt_main.o)
 *fill*         0x0000000010111f95        0x3 
 .rodata        0x0000000010111f98       0x1e C:/Users/test/Documents/EPFL/MA1/Embedded/Lab4/lab_4_V2/sw/lab4_cam1_bsp/\libhal_bsp.a(alt_sys_init.o)
 *(.rodata1)
                0x0000000010111fb8                . = ALIGN (0x4)
 *fill*         0x0000000010111fb6        0x2 
                0x0000000010111fb8                PROVIDE (__ram_rodata_end, ABSOLUTE (.))
                0x0000000010111c10                PROVIDE (__flash_rodata_start, LOADADDR (.rodata))

.rwdata         0x0000000010111fb8     0x1b60 load address 0x0000000010113b18
                0x0000000010111fb8                PROVIDE (__ram_rwdata_start, ABSOLUTE (.))
                0x0000000010111fb8                . = ALIGN (0x4)
 *(.got.plt)
 *(.got)
 *(.data1)
 *(.data .data.* .gnu.linkonce.d.*)
 .data          0x0000000010111fb8        0x0 C:/Users/test/Documents/EPFL/MA1/Embedded/Lab4/lab_4_V2/sw/lab4_cam1_bsp//obj/HAL/src/crt0.o
 .data          0x0000000010111fb8        0x0 obj/default/cmos_sensor_output_generator/cmos_sensor_output_generator.o
 .data          0x0000000010111fb8        0x0 obj/default/hello_world.o
 .data          0x0000000010111fb8        0x0 obj/default/i2c/i2c.o
 .data          0x0000000010111fb8        0x0 x:/quartus/18.1/nios2eds/bin/gnu/h-x86_64-mingw32/bin/../lib/gcc/nios2-elf/5.3.0\libgcc.a(lib2-divmod.o)
 .data          0x0000000010111fb8        0x0 x:/quartus/18.1/nios2eds/bin/gnu/h-x86_64-mingw32/bin/../lib/gcc/nios2-elf/5.3.0/../../../../../H-x86_64-mingw32/nios2-elf/lib\libc.a(lib_a-fclose.o)
 .data          0x0000000010111fb8        0x0 x:/quartus/18.1/nios2eds/bin/gnu/h-x86_64-mingw32/bin/../lib/gcc/nios2-elf/5.3.0/../../../../../H-x86_64-mingw32/nios2-elf/lib\libc.a(lib_a-fflush.o)
 .data          0x0000000010111fb8        0x0 x:/quartus/18.1/nios2eds/bin/gnu/h-x86_64-mingw32/bin/../lib/gcc/nios2-elf/5.3.0/../../../../../H-x86_64-mingw32/nios2-elf/lib\libc.a(lib_a-findfp.o)
 .data          0x0000000010111fb8        0x0 x:/quartus/18.1/nios2eds/bin/gnu/h-x86_64-mingw32/bin/../lib/gcc/nios2-elf/5.3.0/../../../../../H-x86_64-mingw32/nios2-elf/lib\libc.a(lib_a-fopen.o)
 .data          0x0000000010111fb8        0x0 x:/quartus/18.1/nios2eds/bin/gnu/h-x86_64-mingw32/bin/../lib/gcc/nios2-elf/5.3.0/../../../../../H-x86_64-mingw32/nios2-elf/lib\libc.a(lib_a-fprintf.o)
 .data          0x0000000010111fb8        0x0 x:/quartus/18.1/nios2eds/bin/gnu/h-x86_64-mingw32/bin/../lib/gcc/nios2-elf/5.3.0/../../../../../H-x86_64-mingw32/nios2-elf/lib\libc.a(lib_a-fputc.o)
 .data          0x0000000010111fb8        0x0 x:/quartus/18.1/nios2eds/bin/gnu/h-x86_64-mingw32/bin/../lib/gcc/nios2-elf/5.3.0/../../../../../H-x86_64-mingw32/nios2-elf/lib\libc.a(lib_a-freer.o)
 .data          0x0000000010111fb8        0x0 x:/quartus/18.1/nios2eds/bin/gnu/h-x86_64-mingw32/bin/../lib/gcc/nios2-elf/5.3.0/../../../../../H-x86_64-mingw32/nios2-elf/lib\libc.a(lib_a-fseek.o)
 .data          0x0000000010111fb8        0x0 x:/quartus/18.1/nios2eds/bin/gnu/h-x86_64-mingw32/bin/../lib/gcc/nios2-elf/5.3.0/../../../../../H-x86_64-mingw32/nios2-elf/lib\libc.a(lib_a-fseeko.o)
 .data          0x0000000010111fb8        0x0 x:/quartus/18.1/nios2eds/bin/gnu/h-x86_64-mingw32/bin/../lib/gcc/nios2-elf/5.3.0/../../../../../H-x86_64-mingw32/nios2-elf/lib\libc.a(lib_a-fstatr.o)
 .data          0x0000000010111fb8        0x0 x:/quartus/18.1/nios2eds/bin/gnu/h-x86_64-mingw32/bin/../lib/gcc/nios2-elf/5.3.0/../../../../../H-x86_64-mingw32/nios2-elf/lib\libc.a(lib_a-fwalk.o)
 .data          0x0000000010111fb8        0x0 x:/quartus/18.1/nios2eds/bin/gnu/h-x86_64-mingw32/bin/../lib/gcc/nios2-elf/5.3.0/../../../../../H-x86_64-mingw32/nios2-elf/lib\libc.a(lib_a-impure.o)
 .data.impure_data
                0x0000000010111fb8      0x424 x:/quartus/18.1/nios2eds/bin/gnu/h-x86_64-mingw32/bin/../lib/gcc/nios2-elf/5.3.0/../../../../../H-x86_64-mingw32/nios2-elf/lib\libc.a(lib_a-impure.o)
 .data          0x00000000101123dc        0x0 x:/quartus/18.1/nios2eds/bin/gnu/h-x86_64-mingw32/bin/../lib/gcc/nios2-elf/5.3.0/../../../../../H-x86_64-mingw32/nios2-elf/lib\libc.a(lib_a-int_errno.o)
 .data          0x00000000101123dc        0x0 x:/quartus/18.1/nios2eds/bin/gnu/h-x86_64-mingw32/bin/../lib/gcc/nios2-elf/5.3.0/../../../../../H-x86_64-mingw32/nios2-elf/lib\libc.a(lib_a-makebuf.o)
 .data          0x00000000101123dc        0x0 x:/quartus/18.1/nios2eds/bin/gnu/h-x86_64-mingw32/bin/../lib/gcc/nios2-elf/5.3.0/../../../../../H-x86_64-mingw32/nios2-elf/lib\libc.a(lib_a-mallocr.o)
 .data.__malloc_av_
                0x00000000101123dc      0x408 x:/quartus/18.1/nios2eds/bin/gnu/h-x86_64-mingw32/bin/../lib/gcc/nios2-elf/5.3.0/../../../../../H-x86_64-mingw32/nios2-elf/lib\libc.a(lib_a-mallocr.o)
                0x00000000101123dc                __malloc_av_
 .data          0x00000000101127e4        0x0 x:/quartus/18.1/nios2eds/bin/gnu/h-x86_64-mingw32/bin/../lib/gcc/nios2-elf/5.3.0/../../../../../H-x86_64-mingw32/nios2-elf/lib\libc.a(lib_a-memset.o)
 .data          0x00000000101127e4        0x0 x:/quartus/18.1/nios2eds/bin/gnu/h-x86_64-mingw32/bin/../lib/gcc/nios2-elf/5.3.0/../../../../../H-x86_64-mingw32/nios2-elf/lib\libc.a(lib_a-openr.o)
 .data          0x00000000101127e4        0x0 x:/quartus/18.1/nios2eds/bin/gnu/h-x86_64-mingw32/bin/../lib/gcc/nios2-elf/5.3.0/../../../../../H-x86_64-mingw32/nios2-elf/lib\libc.a(lib_a-printf.o)
 .data          0x00000000101127e4        0x0 x:/quartus/18.1/nios2eds/bin/gnu/h-x86_64-mingw32/bin/../lib/gcc/nios2-elf/5.3.0/../../../../../H-x86_64-mingw32/nios2-elf/lib\libc.a(lib_a-putc.o)
 .data          0x00000000101127e4        0x0 x:/quartus/18.1/nios2eds/bin/gnu/h-x86_64-mingw32/bin/../lib/gcc/nios2-elf/5.3.0/../../../../../H-x86_64-mingw32/nios2-elf/lib\libc.a(lib_a-puts.o)
 .data          0x00000000101127e4        0x0 x:/quartus/18.1/nios2eds/bin/gnu/h-x86_64-mingw32/bin/../lib/gcc/nios2-elf/5.3.0/../../../../../H-x86_64-mingw32/nios2-elf/lib\libc.a(lib_a-refill.o)
 .data          0x00000000101127e4        0x0 x:/quartus/18.1/nios2eds/bin/gnu/h-x86_64-mingw32/bin/../lib/gcc/nios2-elf/5.3.0/../../../../../H-x86_64-mingw32/nios2-elf/lib\libc.a(lib_a-rewind.o)
 .data          0x00000000101127e4        0x0 x:/quartus/18.1/nios2eds/bin/gnu/h-x86_64-mingw32/bin/../lib/gcc/nios2-elf/5.3.0/../../../../../H-x86_64-mingw32/nios2-elf/lib\libc.a(lib_a-sbrkr.o)
 .data          0x00000000101127e4        0x0 x:/quartus/18.1/nios2eds/bin/gnu/h-x86_64-mingw32/bin/../lib/gcc/nios2-elf/5.3.0/../../../../../H-x86_64-mingw32/nios2-elf/lib\libc.a(lib_a-stdio.o)
 .data          0x00000000101127e4        0x0 x:/quartus/18.1/nios2eds/bin/gnu/h-x86_64-mingw32/bin/../lib/gcc/nios2-elf/5.3.0/../../../../../H-x86_64-mingw32/nios2-elf/lib\libc.a(lib_a-strlen.o)
 .data          0x00000000101127e4        0x0 x:/quartus/18.1/nios2eds/bin/gnu/h-x86_64-mingw32/bin/../lib/gcc/nios2-elf/5.3.0/../../../../../H-x86_64-mingw32/nios2-elf/lib\libc.a(lib_a-vfprintf.o)
 .data          0x00000000101127e4        0x0 x:/quartus/18.1/nios2eds/bin/gnu/h-x86_64-mingw32/bin/../lib/gcc/nios2-elf/5.3.0/../../../../../H-x86_64-mingw32/nios2-elf/lib\libc.a(lib_a-wbuf.o)
 .data          0x00000000101127e4        0x0 x:/quartus/18.1/nios2eds/bin/gnu/h-x86_64-mingw32/bin/../lib/gcc/nios2-elf/5.3.0/../../../../../H-x86_64-mingw32/nios2-elf/lib\libc.a(lib_a-writer.o)
 .data          0x00000000101127e4        0x0 x:/quartus/18.1/nios2eds/bin/gnu/h-x86_64-mingw32/bin/../lib/gcc/nios2-elf/5.3.0/../../../../../H-x86_64-mingw32/nios2-elf/lib\libc.a(lib_a-wsetup.o)
 .data          0x00000000101127e4        0x0 x:/quartus/18.1/nios2eds/bin/gnu/h-x86_64-mingw32/bin/../lib/gcc/nios2-elf/5.3.0/../../../../../H-x86_64-mingw32/nios2-elf/lib\libc.a(closer.o)
 .data          0x00000000101127e4        0x0 x:/quartus/18.1/nios2eds/bin/gnu/h-x86_64-mingw32/bin/../lib/gcc/nios2-elf/5.3.0/../../../../../H-x86_64-mingw32/nios2-elf/lib\libc.a(lib_a-dtoa.o)
 .data          0x00000000101127e4        0x0 x:/quartus/18.1/nios2eds/bin/gnu/h-x86_64-mingw32/bin/../lib/gcc/nios2-elf/5.3.0/../../../../../H-x86_64-mingw32/nios2-elf/lib\libc.a(lib_a-flags.o)
 .data          0x00000000101127e4        0x0 x:/quartus/18.1/nios2eds/bin/gnu/h-x86_64-mingw32/bin/../lib/gcc/nios2-elf/5.3.0/../../../../../H-x86_64-mingw32/nios2-elf/lib\libc.a(lib_a-fvwrite.o)
 .data          0x00000000101127e4        0x0 x:/quartus/18.1/nios2eds/bin/gnu/h-x86_64-mingw32/bin/../lib/gcc/nios2-elf/5.3.0/../../../../../H-x86_64-mingw32/nios2-elf/lib\libc.a(lib_a-isattyr.o)
 .data          0x00000000101127e4        0x0 x:/quartus/18.1/nios2eds/bin/gnu/h-x86_64-mingw32/bin/../lib/gcc/nios2-elf/5.3.0/../../../../../H-x86_64-mingw32/nios2-elf/lib\libc.a(lib_a-locale.o)
 .data.lc_message_charset
                0x00000000101127e4       0x20 x:/quartus/18.1/nios2eds/bin/gnu/h-x86_64-mingw32/bin/../lib/gcc/nios2-elf/5.3.0/../../../../../H-x86_64-mingw32/nios2-elf/lib\libc.a(lib_a-locale.o)
 .data.lc_ctype_charset
                0x0000000010112804       0x20 x:/quartus/18.1/nios2eds/bin/gnu/h-x86_64-mingw32/bin/../lib/gcc/nios2-elf/5.3.0/../../../../../H-x86_64-mingw32/nios2-elf/lib\libc.a(lib_a-locale.o)
 .data.lconv    0x0000000010112824       0x38 x:/quartus/18.1/nios2eds/bin/gnu/h-x86_64-mingw32/bin/../lib/gcc/nios2-elf/5.3.0/../../../../../H-x86_64-mingw32/nios2-elf/lib\libc.a(lib_a-locale.o)
 .data          0x000000001011285c        0x0 x:/quartus/18.1/nios2eds/bin/gnu/h-x86_64-mingw32/bin/../lib/gcc/nios2-elf/5.3.0/../../../../../H-x86_64-mingw32/nios2-elf/lib\libc.a(lib_a-lseekr.o)
 .data          0x000000001011285c        0x0 x:/quartus/18.1/nios2eds/bin/gnu/h-x86_64-mingw32/bin/../lib/gcc/nios2-elf/5.3.0/../../../../../H-x86_64-mingw32/nios2-elf/lib\libc.a(lib_a-memchr.o)
 .data          0x000000001011285c        0x0 x:/quartus/18.1/nios2eds/bin/gnu/h-x86_64-mingw32/bin/../lib/gcc/nios2-elf/5.3.0/../../../../../H-x86_64-mingw32/nios2-elf/lib\libc.a(lib_a-memcpy.o)
 .data          0x000000001011285c        0x0 x:/quartus/18.1/nios2eds/bin/gnu/h-x86_64-mingw32/bin/../lib/gcc/nios2-elf/5.3.0/../../../../../H-x86_64-mingw32/nios2-elf/lib\libc.a(lib_a-memmove.o)
 .data          0x000000001011285c        0x0 x:/quartus/18.1/nios2eds/bin/gnu/h-x86_64-mingw32/bin/../lib/gcc/nios2-elf/5.3.0/../../../../../H-x86_64-mingw32/nios2-elf/lib\libc.a(lib_a-mprec.o)
 .data          0x000000001011285c        0x0 x:/quartus/18.1/nios2eds/bin/gnu/h-x86_64-mingw32/bin/../lib/gcc/nios2-elf/5.3.0/../../../../../H-x86_64-mingw32/nios2-elf/lib\libc.a(lib_a-readr.o)
 .data          0x000000001011285c        0x0 x:/quartus/18.1/nios2eds/bin/gnu/h-x86_64-mingw32/bin/../lib/gcc/nios2-elf/5.3.0/../../../../../H-x86_64-mingw32/nios2-elf/lib\libc.a(lib_a-reallocr.o)
 .data          0x000000001011285c        0x0 x:/quartus/18.1/nios2eds/bin/gnu/h-x86_64-mingw32/bin/../lib/gcc/nios2-elf/5.3.0/../../../../../H-x86_64-mingw32/nios2-elf/lib\libc.a(lib_a-s_fpclassify.o)
 .data          0x000000001011285c        0x0 x:/quartus/18.1/nios2eds/bin/gnu/h-x86_64-mingw32/bin/../lib/gcc/nios2-elf/5.3.0/../../../../../H-x86_64-mingw32/nios2-elf/lib\libc.a(lib_a-strcmp.o)
 .data          0x000000001011285c        0x0 x:/quartus/18.1/nios2eds/bin/gnu/h-x86_64-mingw32/bin/../lib/gcc/nios2-elf/5.3.0/../../../../../H-x86_64-mingw32/nios2-elf/lib\libc.a(lib_a-vfiprintf.o)
 .data          0x000000001011285c        0x0 x:/quartus/18.1/nios2eds/bin/gnu/h-x86_64-mingw32/bin/../lib/gcc/nios2-elf/5.3.0/../../../../../H-x86_64-mingw32/nios2-elf/lib\libc.a(lib_a-callocr.o)
 .data          0x000000001011285c        0x0 x:/quartus/18.1/nios2eds/bin/gnu/h-x86_64-mingw32/bin/../lib/gcc/nios2-elf/5.3.0/../../../../../H-x86_64-mingw32/nios2-elf/lib\libc.a(lib_a-fputwc.o)
 .data          0x000000001011285c        0x0 x:/quartus/18.1/nios2eds/bin/gnu/h-x86_64-mingw32/bin/../lib/gcc/nios2-elf/5.3.0/../../../../../H-x86_64-mingw32/nios2-elf/lib\libc.a(lib_a-wcrtomb.o)
 .data          0x000000001011285c        0x0 x:/quartus/18.1/nios2eds/bin/gnu/h-x86_64-mingw32/bin/../lib/gcc/nios2-elf/5.3.0/../../../../../H-x86_64-mingw32/nios2-elf/lib\libc.a(lib_a-wctomb_r.o)
 .data          0x000000001011285c        0x0 x:/quartus/18.1/nios2eds/bin/gnu/h-x86_64-mingw32/bin/../lib/gcc/nios2-elf/5.3.0\libgcc.a(_udivdi3.o)
 .data          0x000000001011285c        0x0 x:/quartus/18.1/nios2eds/bin/gnu/h-x86_64-mingw32/bin/../lib/gcc/nios2-elf/5.3.0\libgcc.a(_umoddi3.o)
 .data          0x000000001011285c        0x0 x:/quartus/18.1/nios2eds/bin/gnu/h-x86_64-mingw32/bin/../lib/gcc/nios2-elf/5.3.0\libgcc.a(adddf3.o)
 .data          0x000000001011285c        0x0 x:/quartus/18.1/nios2eds/bin/gnu/h-x86_64-mingw32/bin/../lib/gcc/nios2-elf/5.3.0\libgcc.a(divdf3.o)
 .data          0x000000001011285c        0x0 x:/quartus/18.1/nios2eds/bin/gnu/h-x86_64-mingw32/bin/../lib/gcc/nios2-elf/5.3.0\libgcc.a(eqdf2.o)
 .data          0x000000001011285c        0x0 x:/quartus/18.1/nios2eds/bin/gnu/h-x86_64-mingw32/bin/../lib/gcc/nios2-elf/5.3.0\libgcc.a(gedf2.o)
 .data          0x000000001011285c        0x0 x:/quartus/18.1/nios2eds/bin/gnu/h-x86_64-mingw32/bin/../lib/gcc/nios2-elf/5.3.0\libgcc.a(ledf2.o)
 .data          0x000000001011285c        0x0 x:/quartus/18.1/nios2eds/bin/gnu/h-x86_64-mingw32/bin/../lib/gcc/nios2-elf/5.3.0\libgcc.a(muldf3.o)
 .data          0x000000001011285c        0x0 x:/quartus/18.1/nios2eds/bin/gnu/h-x86_64-mingw32/bin/../lib/gcc/nios2-elf/5.3.0\libgcc.a(subdf3.o)
 .data          0x000000001011285c        0x0 x:/quartus/18.1/nios2eds/bin/gnu/h-x86_64-mingw32/bin/../lib/gcc/nios2-elf/5.3.0\libgcc.a(fixdfsi.o)
 .data          0x000000001011285c        0x0 x:/quartus/18.1/nios2eds/bin/gnu/h-x86_64-mingw32/bin/../lib/gcc/nios2-elf/5.3.0\libgcc.a(floatsidf.o)
 .data          0x000000001011285c        0x0 x:/quartus/18.1/nios2eds/bin/gnu/h-x86_64-mingw32/bin/../lib/gcc/nios2-elf/5.3.0\libgcc.a(floatunsidf.o)
 .data          0x000000001011285c        0x0 x:/quartus/18.1/nios2eds/bin/gnu/h-x86_64-mingw32/bin/../lib/gcc/nios2-elf/5.3.0\libgcc.a(_clz.o)
 .data          0x000000001011285c        0x0 x:/quartus/18.1/nios2eds/bin/gnu/h-x86_64-mingw32/bin/../lib/gcc/nios2-elf/5.3.0\libgcc.a(_clzsi2.o)
 .data          0x000000001011285c        0x0 C:/Users/test/Documents/EPFL/MA1/Embedded/Lab4/lab_4_V2/sw/lab4_cam1_bsp/\libhal_bsp.a(alt_close.o)
 .data          0x000000001011285c      0x1a8 C:/Users/test/Documents/EPFL/MA1/Embedded/Lab4/lab_4_V2/sw/lab4_cam1_bsp/\libhal_bsp.a(alt_dev.o)
                0x000000001011285c                alt_dev_null
                0x0000000010112884                alt_fd_list
 .data          0x0000000010112a04        0x0 C:/Users/test/Documents/EPFL/MA1/Embedded/Lab4/lab_4_V2/sw/lab4_cam1_bsp/\libhal_bsp.a(alt_errno.o)
 .data          0x0000000010112a04        0x0 C:/Users/test/Documents/EPFL/MA1/Embedded/Lab4/lab_4_V2/sw/lab4_cam1_bsp/\libhal_bsp.a(alt_fstat.o)
 .data          0x0000000010112a04        0x0 C:/Users/test/Documents/EPFL/MA1/Embedded/Lab4/lab_4_V2/sw/lab4_cam1_bsp/\libhal_bsp.a(alt_isatty.o)
 .data          0x0000000010112a04        0x0 C:/Users/test/Documents/EPFL/MA1/Embedded/Lab4/lab_4_V2/sw/lab4_cam1_bsp/\libhal_bsp.a(alt_load.o)
 .data          0x0000000010112a04        0x0 C:/Users/test/Documents/EPFL/MA1/Embedded/Lab4/lab_4_V2/sw/lab4_cam1_bsp/\libhal_bsp.a(alt_lseek.o)
 .data          0x0000000010112a04        0x0 C:/Users/test/Documents/EPFL/MA1/Embedded/Lab4/lab_4_V2/sw/lab4_cam1_bsp/\libhal_bsp.a(alt_main.o)
 .data          0x0000000010112a04        0x0 C:/Users/test/Documents/EPFL/MA1/Embedded/Lab4/lab_4_V2/sw/lab4_cam1_bsp/\libhal_bsp.a(alt_malloc_lock.o)
 .data          0x0000000010112a04        0x0 C:/Users/test/Documents/EPFL/MA1/Embedded/Lab4/lab_4_V2/sw/lab4_cam1_bsp/\libhal_bsp.a(alt_open.o)
 .data          0x0000000010112a04        0x0 C:/Users/test/Documents/EPFL/MA1/Embedded/Lab4/lab_4_V2/sw/lab4_cam1_bsp/\libhal_bsp.a(alt_read.o)
 .data          0x0000000010112a04        0x0 C:/Users/test/Documents/EPFL/MA1/Embedded/Lab4/lab_4_V2/sw/lab4_cam1_bsp/\libhal_bsp.a(alt_release_fd.o)
 .data          0x0000000010112a04        0x0 C:/Users/test/Documents/EPFL/MA1/Embedded/Lab4/lab_4_V2/sw/lab4_cam1_bsp/\libhal_bsp.a(alt_sbrk.o)
 .data          0x0000000010112a04        0x0 C:/Users/test/Documents/EPFL/MA1/Embedded/Lab4/lab_4_V2/sw/lab4_cam1_bsp/\libhal_bsp.a(alt_usleep.o)
 .data          0x0000000010112a04        0x0 C:/Users/test/Documents/EPFL/MA1/Embedded/Lab4/lab_4_V2/sw/lab4_cam1_bsp/\libhal_bsp.a(alt_write.o)
 .data          0x0000000010112a04     0x1088 C:/Users/test/Documents/EPFL/MA1/Embedded/Lab4/lab_4_V2/sw/lab4_cam1_bsp/\libhal_bsp.a(alt_sys_init.o)
 .data          0x0000000010113a8c        0x0 C:/Users/test/Documents/EPFL/MA1/Embedded/Lab4/lab_4_V2/sw/lab4_cam1_bsp/\libhal_bsp.a(altera_avalon_jtag_uart_fd.o)
 .data          0x0000000010113a8c        0x0 C:/Users/test/Documents/EPFL/MA1/Embedded/Lab4/lab_4_V2/sw/lab4_cam1_bsp/\libhal_bsp.a(altera_avalon_jtag_uart_init.o)
 .data          0x0000000010113a8c        0x0 C:/Users/test/Documents/EPFL/MA1/Embedded/Lab4/lab_4_V2/sw/lab4_cam1_bsp/\libhal_bsp.a(altera_avalon_jtag_uart_ioctl.o)
 .data          0x0000000010113a8c        0x0 C:/Users/test/Documents/EPFL/MA1/Embedded/Lab4/lab_4_V2/sw/lab4_cam1_bsp/\libhal_bsp.a(altera_avalon_jtag_uart_read.o)
 .data          0x0000000010113a8c        0x0 C:/Users/test/Documents/EPFL/MA1/Embedded/Lab4/lab_4_V2/sw/lab4_cam1_bsp/\libhal_bsp.a(altera_avalon_jtag_uart_write.o)
 .data          0x0000000010113a8c        0x0 C:/Users/test/Documents/EPFL/MA1/Embedded/Lab4/lab_4_V2/sw/lab4_cam1_bsp/\libhal_bsp.a(altera_hostfs.o)
 .data          0x0000000010113a8c        0x0 C:/Users/test/Documents/EPFL/MA1/Embedded/Lab4/lab_4_V2/sw/lab4_cam1_bsp/\libhal_bsp.a(alt_alarm_start.o)
 .data          0x0000000010113a8c        0x0 C:/Users/test/Documents/EPFL/MA1/Embedded/Lab4/lab_4_V2/sw/lab4_cam1_bsp/\libhal_bsp.a(alt_busy_sleep.o)
 .data          0x0000000010113a8c        0x0 C:/Users/test/Documents/EPFL/MA1/Embedded/Lab4/lab_4_V2/sw/lab4_cam1_bsp/\libhal_bsp.a(alt_dcache_flush_all.o)
 .data          0x0000000010113a8c        0x0 C:/Users/test/Documents/EPFL/MA1/Embedded/Lab4/lab_4_V2/sw/lab4_cam1_bsp/\libhal_bsp.a(alt_dev_llist_insert.o)
 .data          0x0000000010113a8c        0x0 C:/Users/test/Documents/EPFL/MA1/Embedded/Lab4/lab_4_V2/sw/lab4_cam1_bsp/\libhal_bsp.a(alt_do_ctors.o)
 .data          0x0000000010113a8c        0x0 C:/Users/test/Documents/EPFL/MA1/Embedded/Lab4/lab_4_V2/sw/lab4_cam1_bsp/\libhal_bsp.a(alt_do_dtors.o)
 .data          0x0000000010113a8c        0x0 C:/Users/test/Documents/EPFL/MA1/Embedded/Lab4/lab_4_V2/sw/lab4_cam1_bsp/\libhal_bsp.a(alt_find_dev.o)
 .data          0x0000000010113a8c        0x0 C:/Users/test/Documents/EPFL/MA1/Embedded/Lab4/lab_4_V2/sw/lab4_cam1_bsp/\libhal_bsp.a(alt_find_file.o)
 .data          0x0000000010113a8c        0x0 C:/Users/test/Documents/EPFL/MA1/Embedded/Lab4/lab_4_V2/sw/lab4_cam1_bsp/\libhal_bsp.a(alt_fs_reg.o)
 .data          0x0000000010113a8c        0x0 C:/Users/test/Documents/EPFL/MA1/Embedded/Lab4/lab_4_V2/sw/lab4_cam1_bsp/\libhal_bsp.a(alt_get_fd.o)
 .data          0x0000000010113a8c        0x0 C:/Users/test/Documents/EPFL/MA1/Embedded/Lab4/lab_4_V2/sw/lab4_cam1_bsp/\libhal_bsp.a(alt_icache_flush_all.o)
 .data          0x0000000010113a8c        0x0 C:/Users/test/Documents/EPFL/MA1/Embedded/Lab4/lab_4_V2/sw/lab4_cam1_bsp/\libhal_bsp.a(alt_iic.o)
 .data          0x0000000010113a8c        0x0 C:/Users/test/Documents/EPFL/MA1/Embedded/Lab4/lab_4_V2/sw/lab4_cam1_bsp/\libhal_bsp.a(alt_iic_isr_register.o)
 .data          0x0000000010113a8c        0x0 C:/Users/test/Documents/EPFL/MA1/Embedded/Lab4/lab_4_V2/sw/lab4_cam1_bsp/\libhal_bsp.a(alt_io_redirect.o)
 .data          0x0000000010113a8c        0x0 C:/Users/test/Documents/EPFL/MA1/Embedded/Lab4/lab_4_V2/sw/lab4_cam1_bsp/\libhal_bsp.a(alt_irq_entry.o)
 .data          0x0000000010113a8c        0x0 C:/Users/test/Documents/EPFL/MA1/Embedded/Lab4/lab_4_V2/sw/lab4_cam1_bsp/\libhal_bsp.a(alt_irq_handler.o)
 .data          0x0000000010113a8c        0x0 C:/Users/test/Documents/EPFL/MA1/Embedded/Lab4/lab_4_V2/sw/lab4_cam1_bsp/\libhal_bsp.a(alt_irq_vars.o)
 .data          0x0000000010113a8c        0x0 C:/Users/test/Documents/EPFL/MA1/Embedded/Lab4/lab_4_V2/sw/lab4_cam1_bsp/\libhal_bsp.a(alt_tick.o)
 .data          0x0000000010113a8c        0x0 C:/Users/test/Documents/EPFL/MA1/Embedded/Lab4/lab_4_V2/sw/lab4_cam1_bsp/\libhal_bsp.a(altera_nios2_gen2_irq.o)
 .data          0x0000000010113a8c        0x0 C:/Users/test/Documents/EPFL/MA1/Embedded/Lab4/lab_4_V2/sw/lab4_cam1_bsp/\libhal_bsp.a(alt_exception_entry.o)
 .data          0x0000000010113a8c        0x0 C:/Users/test/Documents/EPFL/MA1/Embedded/Lab4/lab_4_V2/sw/lab4_cam1_bsp/\libhal_bsp.a(alt_icache_flush.o)
 .data          0x0000000010113a8c        0x0 C:/Users/test/Documents/EPFL/MA1/Embedded/Lab4/lab_4_V2/sw/lab4_cam1_bsp/\libhal_bsp.a(alt_instruction_exception_entry.o)
 .data          0x0000000010113a8c        0x0 x:/quartus/18.1/nios2eds/bin/gnu/h-x86_64-mingw32/bin/../lib/gcc/nios2-elf/5.3.0/../../../../../H-x86_64-mingw32/nios2-elf/lib\libc.a(lib_a-atexit.o)
 .data          0x0000000010113a8c        0x0 x:/quartus/18.1/nios2eds/bin/gnu/h-x86_64-mingw32/bin/../lib/gcc/nios2-elf/5.3.0/../../../../../H-x86_64-mingw32/nios2-elf/lib\libc.a(lib_a-exit.o)
 .data          0x0000000010113a8c        0x0 x:/quartus/18.1/nios2eds/bin/gnu/h-x86_64-mingw32/bin/../lib/gcc/nios2-elf/5.3.0/../../../../../H-x86_64-mingw32/nios2-elf/lib\libc.a(lib_a-memcmp.o)
 .data          0x0000000010113a8c        0x0 x:/quartus/18.1/nios2eds/bin/gnu/h-x86_64-mingw32/bin/../lib/gcc/nios2-elf/5.3.0/../../../../../H-x86_64-mingw32/nios2-elf/lib\libc.a(lib_a-__atexit.o)
 .data          0x0000000010113a8c        0x0 x:/quartus/18.1/nios2eds/bin/gnu/h-x86_64-mingw32/bin/../lib/gcc/nios2-elf/5.3.0/../../../../../H-x86_64-mingw32/nios2-elf/lib\libc.a(lib_a-__call_atexit.o)
 .data          0x0000000010113a8c        0x0 C:/Users/test/Documents/EPFL/MA1/Embedded/Lab4/lab_4_V2/sw/lab4_cam1_bsp/\libhal_bsp.a(alt_exit.o)
                0x000000001011ba8c                _gp = ABSOLUTE ((. + 0x8000))
                [!provide]                        PROVIDE (gp, _gp)
 *(.rwdata .rwdata.*)
 *(.sdata .sdata.* .gnu.linkonce.s.*)
 .sdata         0x0000000010113a8c        0x4 obj/default/hello_world.o
                0x0000000010113a8c                filename
 .sdata._global_impure_ptr
                0x0000000010113a90        0x4 x:/quartus/18.1/nios2eds/bin/gnu/h-x86_64-mingw32/bin/../lib/gcc/nios2-elf/5.3.0/../../../../../H-x86_64-mingw32/nios2-elf/lib\libc.a(lib_a-impure.o)
                0x0000000010113a90                _global_impure_ptr
 .sdata._impure_ptr
                0x0000000010113a94        0x4 x:/quartus/18.1/nios2eds/bin/gnu/h-x86_64-mingw32/bin/../lib/gcc/nios2-elf/5.3.0/../../../../../H-x86_64-mingw32/nios2-elf/lib\libc.a(lib_a-impure.o)
                0x0000000010113a94                _impure_ptr
 .sdata.__malloc_sbrk_base
                0x0000000010113a98        0x4 x:/quartus/18.1/nios2eds/bin/gnu/h-x86_64-mingw32/bin/../lib/gcc/nios2-elf/5.3.0/../../../../../H-x86_64-mingw32/nios2-elf/lib\libc.a(lib_a-mallocr.o)
                0x0000000010113a98                __malloc_sbrk_base
 .sdata.__malloc_trim_threshold
                0x0000000010113a9c        0x4 x:/quartus/18.1/nios2eds/bin/gnu/h-x86_64-mingw32/bin/../lib/gcc/nios2-elf/5.3.0/../../../../../H-x86_64-mingw32/nios2-elf/lib\libc.a(lib_a-mallocr.o)
                0x0000000010113a9c                __malloc_trim_threshold
 .sdata.__mb_cur_max
                0x0000000010113aa0        0x4 x:/quartus/18.1/nios2eds/bin/gnu/h-x86_64-mingw32/bin/../lib/gcc/nios2-elf/5.3.0/../../../../../H-x86_64-mingw32/nios2-elf/lib\libc.a(lib_a-locale.o)
                0x0000000010113aa0                __mb_cur_max
 .sdata.__wctomb
                0x0000000010113aa4        0x4 x:/quartus/18.1/nios2eds/bin/gnu/h-x86_64-mingw32/bin/../lib/gcc/nios2-elf/5.3.0/../../../../../H-x86_64-mingw32/nios2-elf/lib\libc.a(lib_a-wctomb_r.o)
                0x0000000010113aa4                __wctomb
 .sdata         0x0000000010113aa8       0x14 C:/Users/test/Documents/EPFL/MA1/Embedded/Lab4/lab_4_V2/sw/lab4_cam1_bsp/\libhal_bsp.a(alt_dev.o)
                0x0000000010113aa8                alt_fs_list
                0x0000000010113ab0                alt_dev_list
                0x0000000010113ab8                alt_max_fd
 .sdata         0x0000000010113abc        0x4 C:/Users/test/Documents/EPFL/MA1/Embedded/Lab4/lab_4_V2/sw/lab4_cam1_bsp/\libhal_bsp.a(alt_errno.o)
                0x0000000010113abc                alt_errno
 .sdata         0x0000000010113ac0        0x4 C:/Users/test/Documents/EPFL/MA1/Embedded/Lab4/lab_4_V2/sw/lab4_cam1_bsp/\libhal_bsp.a(alt_sbrk.o)
 .sdata         0x0000000010113ac4       0x46 C:/Users/test/Documents/EPFL/MA1/Embedded/Lab4/lab_4_V2/sw/lab4_cam1_bsp/\libhal_bsp.a(altera_hostfs.o)
 *fill*         0x0000000010113b0a        0x2 
 .sdata         0x0000000010113b0c        0x4 C:/Users/test/Documents/EPFL/MA1/Embedded/Lab4/lab_4_V2/sw/lab4_cam1_bsp/\libhal_bsp.a(alt_irq_vars.o)
                0x0000000010113b0c                alt_priority_mask
 .sdata         0x0000000010113b10        0x8 C:/Users/test/Documents/EPFL/MA1/Embedded/Lab4/lab_4_V2/sw/lab4_cam1_bsp/\libhal_bsp.a(alt_tick.o)
                0x0000000010113b10                alt_alarm_list
 *(.sdata2 .sdata2.* .gnu.linkonce.s2.*)
                0x0000000010113b18                . = ALIGN (0x4)
                0x0000000010113b18                _edata = ABSOLUTE (.)
                [!provide]                        PROVIDE (edata, ABSOLUTE (.))
                0x0000000010113b18                PROVIDE (__ram_rwdata_end, ABSOLUTE (.))
                0x0000000010113b18                PROVIDE (__flash_rwdata_start, LOADADDR (.rwdata))

.bss            0x0000000010115678      0x160
                0x0000000010115678                __bss_start = ABSOLUTE (.)
                [!provide]                        PROVIDE (__sbss_start, ABSOLUTE (.))
                [!provide]                        PROVIDE (___sbss_start, ABSOLUTE (.))
 *(.dynsbss)
 *(.sbss .sbss.* .gnu.linkonce.sb.*)
 .sbss          0x0000000010115678        0x4 x:/quartus/18.1/nios2eds/bin/gnu/h-x86_64-mingw32/bin/../lib/gcc/nios2-elf/5.3.0/../../../../../H-x86_64-mingw32/nios2-elf/lib\libc.a(lib_a-int_errno.o)
                0x0000000010115678                errno
 .sbss.__malloc_max_total_mem
                0x000000001011567c        0x4 x:/quartus/18.1/nios2eds/bin/gnu/h-x86_64-mingw32/bin/../lib/gcc/nios2-elf/5.3.0/../../../../../H-x86_64-mingw32/nios2-elf/lib\libc.a(lib_a-mallocr.o)
                0x000000001011567c                __malloc_max_total_mem
 .sbss.__malloc_max_sbrked_mem
                0x0000000010115680        0x4 x:/quartus/18.1/nios2eds/bin/gnu/h-x86_64-mingw32/bin/../lib/gcc/nios2-elf/5.3.0/../../../../../H-x86_64-mingw32/nios2-elf/lib\libc.a(lib_a-mallocr.o)
                0x0000000010115680                __malloc_max_sbrked_mem
 .sbss.__malloc_top_pad
                0x0000000010115684        0x4 x:/quartus/18.1/nios2eds/bin/gnu/h-x86_64-mingw32/bin/../lib/gcc/nios2-elf/5.3.0/../../../../../H-x86_64-mingw32/nios2-elf/lib\libc.a(lib_a-mallocr.o)
                0x0000000010115684                __malloc_top_pad
 .sbss._PathLocale
                0x0000000010115688        0x4 x:/quartus/18.1/nios2eds/bin/gnu/h-x86_64-mingw32/bin/../lib/gcc/nios2-elf/5.3.0/../../../../../H-x86_64-mingw32/nios2-elf/lib\libc.a(lib_a-locale.o)
                0x0000000010115688                _PathLocale
 .sbss.__mlocale_changed
                0x000000001011568c        0x4 x:/quartus/18.1/nios2eds/bin/gnu/h-x86_64-mingw32/bin/../lib/gcc/nios2-elf/5.3.0/../../../../../H-x86_64-mingw32/nios2-elf/lib\libc.a(lib_a-locale.o)
                0x000000001011568c                __mlocale_changed
 .sbss.__nlocale_changed
                0x0000000010115690        0x4 x:/quartus/18.1/nios2eds/bin/gnu/h-x86_64-mingw32/bin/../lib/gcc/nios2-elf/5.3.0/../../../../../H-x86_64-mingw32/nios2-elf/lib\libc.a(lib_a-locale.o)
                0x0000000010115690                __nlocale_changed
 .sbss          0x0000000010115694        0xc C:/Users/test/Documents/EPFL/MA1/Embedded/Lab4/lab_4_V2/sw/lab4_cam1_bsp/\libhal_bsp.a(alt_main.o)
                0x0000000010115694                alt_argc
                0x0000000010115698                alt_argv
                0x000000001011569c                alt_envp
 .sbss          0x00000000101156a0        0x4 C:/Users/test/Documents/EPFL/MA1/Embedded/Lab4/lab_4_V2/sw/lab4_cam1_bsp/\libhal_bsp.a(alt_irq_vars.o)
                0x00000000101156a0                alt_irq_active
 .sbss          0x00000000101156a4        0x8 C:/Users/test/Documents/EPFL/MA1/Embedded/Lab4/lab_4_V2/sw/lab4_cam1_bsp/\libhal_bsp.a(alt_tick.o)
                0x00000000101156a4                _alt_tick_rate
                0x00000000101156a8                _alt_nticks
 .sbss          0x00000000101156ac        0x4 C:/Users/test/Documents/EPFL/MA1/Embedded/Lab4/lab_4_V2/sw/lab4_cam1_bsp/\libhal_bsp.a(alt_instruction_exception_entry.o)
                0x00000000101156ac                alt_instruction_exception_handler
 *(.sbss2 .sbss2.* .gnu.linkonce.sb2.*)
 *(.scommon)
                [!provide]                        PROVIDE (__sbss_end, ABSOLUTE (.))
                [!provide]                        PROVIDE (___sbss_end, ABSOLUTE (.))
 *(.dynbss)
 *(.bss .bss.* .gnu.linkonce.b.*)
 .bss           0x00000000101156b0        0x0 C:/Users/test/Documents/EPFL/MA1/Embedded/Lab4/lab_4_V2/sw/lab4_cam1_bsp//obj/HAL/src/crt0.o
 .bss           0x00000000101156b0        0x0 obj/default/cmos_sensor_output_generator/cmos_sensor_output_generator.o
 .bss           0x00000000101156b0        0x0 obj/default/hello_world.o
 .bss           0x00000000101156b0        0x0 obj/default/i2c/i2c.o
 .bss           0x00000000101156b0        0x0 x:/quartus/18.1/nios2eds/bin/gnu/h-x86_64-mingw32/bin/../lib/gcc/nios2-elf/5.3.0\libgcc.a(lib2-divmod.o)
 .bss           0x00000000101156b0        0x0 x:/quartus/18.1/nios2eds/bin/gnu/h-x86_64-mingw32/bin/../lib/gcc/nios2-elf/5.3.0/../../../../../H-x86_64-mingw32/nios2-elf/lib\libc.a(lib_a-fclose.o)
 .bss           0x00000000101156b0        0x0 x:/quartus/18.1/nios2eds/bin/gnu/h-x86_64-mingw32/bin/../lib/gcc/nios2-elf/5.3.0/../../../../../H-x86_64-mingw32/nios2-elf/lib\libc.a(lib_a-fflush.o)
 .bss           0x00000000101156b0        0x0 x:/quartus/18.1/nios2eds/bin/gnu/h-x86_64-mingw32/bin/../lib/gcc/nios2-elf/5.3.0/../../../../../H-x86_64-mingw32/nios2-elf/lib\libc.a(lib_a-findfp.o)
 .bss           0x00000000101156b0        0x0 x:/quartus/18.1/nios2eds/bin/gnu/h-x86_64-mingw32/bin/../lib/gcc/nios2-elf/5.3.0/../../../../../H-x86_64-mingw32/nios2-elf/lib\libc.a(lib_a-fopen.o)
 .bss           0x00000000101156b0        0x0 x:/quartus/18.1/nios2eds/bin/gnu/h-x86_64-mingw32/bin/../lib/gcc/nios2-elf/5.3.0/../../../../../H-x86_64-mingw32/nios2-elf/lib\libc.a(lib_a-fprintf.o)
 .bss           0x00000000101156b0        0x0 x:/quartus/18.1/nios2eds/bin/gnu/h-x86_64-mingw32/bin/../lib/gcc/nios2-elf/5.3.0/../../../../../H-x86_64-mingw32/nios2-elf/lib\libc.a(lib_a-fputc.o)
 .bss           0x00000000101156b0        0x0 x:/quartus/18.1/nios2eds/bin/gnu/h-x86_64-mingw32/bin/../lib/gcc/nios2-elf/5.3.0/../../../../../H-x86_64-mingw32/nios2-elf/lib\libc.a(lib_a-freer.o)
 .bss           0x00000000101156b0        0x0 x:/quartus/18.1/nios2eds/bin/gnu/h-x86_64-mingw32/bin/../lib/gcc/nios2-elf/5.3.0/../../../../../H-x86_64-mingw32/nios2-elf/lib\libc.a(lib_a-fseek.o)
 .bss           0x00000000101156b0        0x0 x:/quartus/18.1/nios2eds/bin/gnu/h-x86_64-mingw32/bin/../lib/gcc/nios2-elf/5.3.0/../../../../../H-x86_64-mingw32/nios2-elf/lib\libc.a(lib_a-fseeko.o)
 .bss           0x00000000101156b0        0x0 x:/quartus/18.1/nios2eds/bin/gnu/h-x86_64-mingw32/bin/../lib/gcc/nios2-elf/5.3.0/../../../../../H-x86_64-mingw32/nios2-elf/lib\libc.a(lib_a-fstatr.o)
 .bss           0x00000000101156b0        0x0 x:/quartus/18.1/nios2eds/bin/gnu/h-x86_64-mingw32/bin/../lib/gcc/nios2-elf/5.3.0/../../../../../H-x86_64-mingw32/nios2-elf/lib\libc.a(lib_a-fwalk.o)
 .bss           0x00000000101156b0        0x0 x:/quartus/18.1/nios2eds/bin/gnu/h-x86_64-mingw32/bin/../lib/gcc/nios2-elf/5.3.0/../../../../../H-x86_64-mingw32/nios2-elf/lib\libc.a(lib_a-impure.o)
 .bss           0x00000000101156b0        0x0 x:/quartus/18.1/nios2eds/bin/gnu/h-x86_64-mingw32/bin/../lib/gcc/nios2-elf/5.3.0/../../../../../H-x86_64-mingw32/nios2-elf/lib\libc.a(lib_a-int_errno.o)
 .bss           0x00000000101156b0        0x0 x:/quartus/18.1/nios2eds/bin/gnu/h-x86_64-mingw32/bin/../lib/gcc/nios2-elf/5.3.0/../../../../../H-x86_64-mingw32/nios2-elf/lib\libc.a(lib_a-makebuf.o)
 .bss           0x00000000101156b0        0x0 x:/quartus/18.1/nios2eds/bin/gnu/h-x86_64-mingw32/bin/../lib/gcc/nios2-elf/5.3.0/../../../../../H-x86_64-mingw32/nios2-elf/lib\libc.a(lib_a-mallocr.o)
 .bss.__malloc_current_mallinfo
                0x00000000101156b0       0x28 x:/quartus/18.1/nios2eds/bin/gnu/h-x86_64-mingw32/bin/../lib/gcc/nios2-elf/5.3.0/../../../../../H-x86_64-mingw32/nios2-elf/lib\libc.a(lib_a-mallocr.o)
                0x00000000101156b0                __malloc_current_mallinfo
 .bss           0x00000000101156d8        0x0 x:/quartus/18.1/nios2eds/bin/gnu/h-x86_64-mingw32/bin/../lib/gcc/nios2-elf/5.3.0/../../../../../H-x86_64-mingw32/nios2-elf/lib\libc.a(lib_a-memset.o)
 .bss           0x00000000101156d8        0x0 x:/quartus/18.1/nios2eds/bin/gnu/h-x86_64-mingw32/bin/../lib/gcc/nios2-elf/5.3.0/../../../../../H-x86_64-mingw32/nios2-elf/lib\libc.a(lib_a-openr.o)
 .bss           0x00000000101156d8        0x0 x:/quartus/18.1/nios2eds/bin/gnu/h-x86_64-mingw32/bin/../lib/gcc/nios2-elf/5.3.0/../../../../../H-x86_64-mingw32/nios2-elf/lib\libc.a(lib_a-printf.o)
 .bss           0x00000000101156d8        0x0 x:/quartus/18.1/nios2eds/bin/gnu/h-x86_64-mingw32/bin/../lib/gcc/nios2-elf/5.3.0/../../../../../H-x86_64-mingw32/nios2-elf/lib\libc.a(lib_a-putc.o)
 .bss           0x00000000101156d8        0x0 x:/quartus/18.1/nios2eds/bin/gnu/h-x86_64-mingw32/bin/../lib/gcc/nios2-elf/5.3.0/../../../../../H-x86_64-mingw32/nios2-elf/lib\libc.a(lib_a-puts.o)
 .bss           0x00000000101156d8        0x0 x:/quartus/18.1/nios2eds/bin/gnu/h-x86_64-mingw32/bin/../lib/gcc/nios2-elf/5.3.0/../../../../../H-x86_64-mingw32/nios2-elf/lib\libc.a(lib_a-refill.o)
 .bss           0x00000000101156d8        0x0 x:/quartus/18.1/nios2eds/bin/gnu/h-x86_64-mingw32/bin/../lib/gcc/nios2-elf/5.3.0/../../../../../H-x86_64-mingw32/nios2-elf/lib\libc.a(lib_a-rewind.o)
 .bss           0x00000000101156d8        0x0 x:/quartus/18.1/nios2eds/bin/gnu/h-x86_64-mingw32/bin/../lib/gcc/nios2-elf/5.3.0/../../../../../H-x86_64-mingw32/nios2-elf/lib\libc.a(lib_a-sbrkr.o)
 .bss           0x00000000101156d8        0x0 x:/quartus/18.1/nios2eds/bin/gnu/h-x86_64-mingw32/bin/../lib/gcc/nios2-elf/5.3.0/../../../../../H-x86_64-mingw32/nios2-elf/lib\libc.a(lib_a-stdio.o)
 .bss           0x00000000101156d8        0x0 x:/quartus/18.1/nios2eds/bin/gnu/h-x86_64-mingw32/bin/../lib/gcc/nios2-elf/5.3.0/../../../../../H-x86_64-mingw32/nios2-elf/lib\libc.a(lib_a-strlen.o)
 .bss           0x00000000101156d8        0x0 x:/quartus/18.1/nios2eds/bin/gnu/h-x86_64-mingw32/bin/../lib/gcc/nios2-elf/5.3.0/../../../../../H-x86_64-mingw32/nios2-elf/lib\libc.a(lib_a-vfprintf.o)
 .bss           0x00000000101156d8        0x0 x:/quartus/18.1/nios2eds/bin/gnu/h-x86_64-mingw32/bin/../lib/gcc/nios2-elf/5.3.0/../../../../../H-x86_64-mingw32/nios2-elf/lib\libc.a(lib_a-wbuf.o)
 .bss           0x00000000101156d8        0x0 x:/quartus/18.1/nios2eds/bin/gnu/h-x86_64-mingw32/bin/../lib/gcc/nios2-elf/5.3.0/../../../../../H-x86_64-mingw32/nios2-elf/lib\libc.a(lib_a-writer.o)
 .bss           0x00000000101156d8        0x0 x:/quartus/18.1/nios2eds/bin/gnu/h-x86_64-mingw32/bin/../lib/gcc/nios2-elf/5.3.0/../../../../../H-x86_64-mingw32/nios2-elf/lib\libc.a(lib_a-wsetup.o)
 .bss           0x00000000101156d8        0x0 x:/quartus/18.1/nios2eds/bin/gnu/h-x86_64-mingw32/bin/../lib/gcc/nios2-elf/5.3.0/../../../../../H-x86_64-mingw32/nios2-elf/lib\libc.a(closer.o)
 .bss           0x00000000101156d8        0x0 x:/quartus/18.1/nios2eds/bin/gnu/h-x86_64-mingw32/bin/../lib/gcc/nios2-elf/5.3.0/../../../../../H-x86_64-mingw32/nios2-elf/lib\libc.a(lib_a-dtoa.o)
 .bss           0x00000000101156d8        0x0 x:/quartus/18.1/nios2eds/bin/gnu/h-x86_64-mingw32/bin/../lib/gcc/nios2-elf/5.3.0/../../../../../H-x86_64-mingw32/nios2-elf/lib\libc.a(lib_a-flags.o)
 .bss           0x00000000101156d8        0x0 x:/quartus/18.1/nios2eds/bin/gnu/h-x86_64-mingw32/bin/../lib/gcc/nios2-elf/5.3.0/../../../../../H-x86_64-mingw32/nios2-elf/lib\libc.a(lib_a-fvwrite.o)
 .bss           0x00000000101156d8        0x0 x:/quartus/18.1/nios2eds/bin/gnu/h-x86_64-mingw32/bin/../lib/gcc/nios2-elf/5.3.0/../../../../../H-x86_64-mingw32/nios2-elf/lib\libc.a(lib_a-isattyr.o)
 .bss           0x00000000101156d8        0x0 x:/quartus/18.1/nios2eds/bin/gnu/h-x86_64-mingw32/bin/../lib/gcc/nios2-elf/5.3.0/../../../../../H-x86_64-mingw32/nios2-elf/lib\libc.a(lib_a-locale.o)
 .bss           0x00000000101156d8        0x0 x:/quartus/18.1/nios2eds/bin/gnu/h-x86_64-mingw32/bin/../lib/gcc/nios2-elf/5.3.0/../../../../../H-x86_64-mingw32/nios2-elf/lib\libc.a(lib_a-lseekr.o)
 .bss           0x00000000101156d8        0x0 x:/quartus/18.1/nios2eds/bin/gnu/h-x86_64-mingw32/bin/../lib/gcc/nios2-elf/5.3.0/../../../../../H-x86_64-mingw32/nios2-elf/lib\libc.a(lib_a-memchr.o)
 .bss           0x00000000101156d8        0x0 x:/quartus/18.1/nios2eds/bin/gnu/h-x86_64-mingw32/bin/../lib/gcc/nios2-elf/5.3.0/../../../../../H-x86_64-mingw32/nios2-elf/lib\libc.a(lib_a-memcpy.o)
 .bss           0x00000000101156d8        0x0 x:/quartus/18.1/nios2eds/bin/gnu/h-x86_64-mingw32/bin/../lib/gcc/nios2-elf/5.3.0/../../../../../H-x86_64-mingw32/nios2-elf/lib\libc.a(lib_a-memmove.o)
 .bss           0x00000000101156d8        0x0 x:/quartus/18.1/nios2eds/bin/gnu/h-x86_64-mingw32/bin/../lib/gcc/nios2-elf/5.3.0/../../../../../H-x86_64-mingw32/nios2-elf/lib\libc.a(lib_a-mprec.o)
 .bss           0x00000000101156d8        0x0 x:/quartus/18.1/nios2eds/bin/gnu/h-x86_64-mingw32/bin/../lib/gcc/nios2-elf/5.3.0/../../../../../H-x86_64-mingw32/nios2-elf/lib\libc.a(lib_a-readr.o)
 .bss           0x00000000101156d8        0x0 x:/quartus/18.1/nios2eds/bin/gnu/h-x86_64-mingw32/bin/../lib/gcc/nios2-elf/5.3.0/../../../../../H-x86_64-mingw32/nios2-elf/lib\libc.a(lib_a-reallocr.o)
 .bss           0x00000000101156d8        0x0 x:/quartus/18.1/nios2eds/bin/gnu/h-x86_64-mingw32/bin/../lib/gcc/nios2-elf/5.3.0/../../../../../H-x86_64-mingw32/nios2-elf/lib\libc.a(lib_a-s_fpclassify.o)
 .bss           0x00000000101156d8        0x0 x:/quartus/18.1/nios2eds/bin/gnu/h-x86_64-mingw32/bin/../lib/gcc/nios2-elf/5.3.0/../../../../../H-x86_64-mingw32/nios2-elf/lib\libc.a(lib_a-strcmp.o)
 .bss           0x00000000101156d8        0x0 x:/quartus/18.1/nios2eds/bin/gnu/h-x86_64-mingw32/bin/../lib/gcc/nios2-elf/5.3.0/../../../../../H-x86_64-mingw32/nios2-elf/lib\libc.a(lib_a-vfiprintf.o)
 .bss           0x00000000101156d8        0x0 x:/quartus/18.1/nios2eds/bin/gnu/h-x86_64-mingw32/bin/../lib/gcc/nios2-elf/5.3.0/../../../../../H-x86_64-mingw32/nios2-elf/lib\libc.a(lib_a-callocr.o)
 .bss           0x00000000101156d8        0x0 x:/quartus/18.1/nios2eds/bin/gnu/h-x86_64-mingw32/bin/../lib/gcc/nios2-elf/5.3.0/../../../../../H-x86_64-mingw32/nios2-elf/lib\libc.a(lib_a-fputwc.o)
 .bss           0x00000000101156d8        0x0 x:/quartus/18.1/nios2eds/bin/gnu/h-x86_64-mingw32/bin/../lib/gcc/nios2-elf/5.3.0/../../../../../H-x86_64-mingw32/nios2-elf/lib\libc.a(lib_a-wcrtomb.o)
 .bss           0x00000000101156d8        0x0 x:/quartus/18.1/nios2eds/bin/gnu/h-x86_64-mingw32/bin/../lib/gcc/nios2-elf/5.3.0/../../../../../H-x86_64-mingw32/nios2-elf/lib\libc.a(lib_a-wctomb_r.o)
 .bss           0x00000000101156d8        0x0 x:/quartus/18.1/nios2eds/bin/gnu/h-x86_64-mingw32/bin/../lib/gcc/nios2-elf/5.3.0\libgcc.a(_udivdi3.o)
 .bss           0x00000000101156d8        0x0 x:/quartus/18.1/nios2eds/bin/gnu/h-x86_64-mingw32/bin/../lib/gcc/nios2-elf/5.3.0\libgcc.a(_umoddi3.o)
 .bss           0x00000000101156d8        0x0 x:/quartus/18.1/nios2eds/bin/gnu/h-x86_64-mingw32/bin/../lib/gcc/nios2-elf/5.3.0\libgcc.a(adddf3.o)
 .bss           0x00000000101156d8        0x0 x:/quartus/18.1/nios2eds/bin/gnu/h-x86_64-mingw32/bin/../lib/gcc/nios2-elf/5.3.0\libgcc.a(divdf3.o)
 .bss           0x00000000101156d8        0x0 x:/quartus/18.1/nios2eds/bin/gnu/h-x86_64-mingw32/bin/../lib/gcc/nios2-elf/5.3.0\libgcc.a(eqdf2.o)
 .bss           0x00000000101156d8        0x0 x:/quartus/18.1/nios2eds/bin/gnu/h-x86_64-mingw32/bin/../lib/gcc/nios2-elf/5.3.0\libgcc.a(gedf2.o)
 .bss           0x00000000101156d8        0x0 x:/quartus/18.1/nios2eds/bin/gnu/h-x86_64-mingw32/bin/../lib/gcc/nios2-elf/5.3.0\libgcc.a(ledf2.o)
 .bss           0x00000000101156d8        0x0 x:/quartus/18.1/nios2eds/bin/gnu/h-x86_64-mingw32/bin/../lib/gcc/nios2-elf/5.3.0\libgcc.a(muldf3.o)
 .bss           0x00000000101156d8        0x0 x:/quartus/18.1/nios2eds/bin/gnu/h-x86_64-mingw32/bin/../lib/gcc/nios2-elf/5.3.0\libgcc.a(subdf3.o)
 .bss           0x00000000101156d8        0x0 x:/quartus/18.1/nios2eds/bin/gnu/h-x86_64-mingw32/bin/../lib/gcc/nios2-elf/5.3.0\libgcc.a(fixdfsi.o)
 .bss           0x00000000101156d8        0x0 x:/quartus/18.1/nios2eds/bin/gnu/h-x86_64-mingw32/bin/../lib/gcc/nios2-elf/5.3.0\libgcc.a(floatsidf.o)
 .bss           0x00000000101156d8        0x0 x:/quartus/18.1/nios2eds/bin/gnu/h-x86_64-mingw32/bin/../lib/gcc/nios2-elf/5.3.0\libgcc.a(floatunsidf.o)
 .bss           0x00000000101156d8        0x0 x:/quartus/18.1/nios2eds/bin/gnu/h-x86_64-mingw32/bin/../lib/gcc/nios2-elf/5.3.0\libgcc.a(_clz.o)
 .bss           0x00000000101156d8        0x0 x:/quartus/18.1/nios2eds/bin/gnu/h-x86_64-mingw32/bin/../lib/gcc/nios2-elf/5.3.0\libgcc.a(_clzsi2.o)
 .bss           0x00000000101156d8        0x0 C:/Users/test/Documents/EPFL/MA1/Embedded/Lab4/lab_4_V2/sw/lab4_cam1_bsp/\libhal_bsp.a(alt_close.o)
 .bss           0x00000000101156d8        0x0 C:/Users/test/Documents/EPFL/MA1/Embedded/Lab4/lab_4_V2/sw/lab4_cam1_bsp/\libhal_bsp.a(alt_dev.o)
 .bss           0x00000000101156d8        0x0 C:/Users/test/Documents/EPFL/MA1/Embedded/Lab4/lab_4_V2/sw/lab4_cam1_bsp/\libhal_bsp.a(alt_errno.o)
 .bss           0x00000000101156d8        0x0 C:/Users/test/Documents/EPFL/MA1/Embedded/Lab4/lab_4_V2/sw/lab4_cam1_bsp/\libhal_bsp.a(alt_fstat.o)
 .bss           0x00000000101156d8        0x0 C:/Users/test/Documents/EPFL/MA1/Embedded/Lab4/lab_4_V2/sw/lab4_cam1_bsp/\libhal_bsp.a(alt_isatty.o)
 .bss           0x00000000101156d8        0x0 C:/Users/test/Documents/EPFL/MA1/Embedded/Lab4/lab_4_V2/sw/lab4_cam1_bsp/\libhal_bsp.a(alt_load.o)
 .bss           0x00000000101156d8        0x0 C:/Users/test/Documents/EPFL/MA1/Embedded/Lab4/lab_4_V2/sw/lab4_cam1_bsp/\libhal_bsp.a(alt_lseek.o)
 .bss           0x00000000101156d8        0x0 C:/Users/test/Documents/EPFL/MA1/Embedded/Lab4/lab_4_V2/sw/lab4_cam1_bsp/\libhal_bsp.a(alt_main.o)
 .bss           0x00000000101156d8        0x0 C:/Users/test/Documents/EPFL/MA1/Embedded/Lab4/lab_4_V2/sw/lab4_cam1_bsp/\libhal_bsp.a(alt_malloc_lock.o)
 .bss           0x00000000101156d8        0x0 C:/Users/test/Documents/EPFL/MA1/Embedded/Lab4/lab_4_V2/sw/lab4_cam1_bsp/\libhal_bsp.a(alt_open.o)
 .bss           0x00000000101156d8        0x0 C:/Users/test/Documents/EPFL/MA1/Embedded/Lab4/lab_4_V2/sw/lab4_cam1_bsp/\libhal_bsp.a(alt_read.o)
 .bss           0x00000000101156d8        0x0 C:/Users/test/Documents/EPFL/MA1/Embedded/Lab4/lab_4_V2/sw/lab4_cam1_bsp/\libhal_bsp.a(alt_release_fd.o)
 .bss           0x00000000101156d8        0x0 C:/Users/test/Documents/EPFL/MA1/Embedded/Lab4/lab_4_V2/sw/lab4_cam1_bsp/\libhal_bsp.a(alt_sbrk.o)
 .bss           0x00000000101156d8        0x0 C:/Users/test/Documents/EPFL/MA1/Embedded/Lab4/lab_4_V2/sw/lab4_cam1_bsp/\libhal_bsp.a(alt_usleep.o)
 .bss           0x00000000101156d8        0x0 C:/Users/test/Documents/EPFL/MA1/Embedded/Lab4/lab_4_V2/sw/lab4_cam1_bsp/\libhal_bsp.a(alt_write.o)
 .bss           0x00000000101156d8        0x0 C:/Users/test/Documents/EPFL/MA1/Embedded/Lab4/lab_4_V2/sw/lab4_cam1_bsp/\libhal_bsp.a(alt_sys_init.o)
 .bss           0x00000000101156d8        0x0 C:/Users/test/Documents/EPFL/MA1/Embedded/Lab4/lab_4_V2/sw/lab4_cam1_bsp/\libhal_bsp.a(altera_avalon_jtag_uart_fd.o)
 .bss           0x00000000101156d8        0x0 C:/Users/test/Documents/EPFL/MA1/Embedded/Lab4/lab_4_V2/sw/lab4_cam1_bsp/\libhal_bsp.a(altera_avalon_jtag_uart_init.o)
 .bss           0x00000000101156d8        0x0 C:/Users/test/Documents/EPFL/MA1/Embedded/Lab4/lab_4_V2/sw/lab4_cam1_bsp/\libhal_bsp.a(altera_avalon_jtag_uart_ioctl.o)
 .bss           0x00000000101156d8        0x0 C:/Users/test/Documents/EPFL/MA1/Embedded/Lab4/lab_4_V2/sw/lab4_cam1_bsp/\libhal_bsp.a(altera_avalon_jtag_uart_read.o)
 .bss           0x00000000101156d8        0x0 C:/Users/test/Documents/EPFL/MA1/Embedded/Lab4/lab_4_V2/sw/lab4_cam1_bsp/\libhal_bsp.a(altera_avalon_jtag_uart_write.o)
 .bss           0x00000000101156d8        0x0 C:/Users/test/Documents/EPFL/MA1/Embedded/Lab4/lab_4_V2/sw/lab4_cam1_bsp/\libhal_bsp.a(altera_hostfs.o)
 .bss           0x00000000101156d8        0x0 C:/Users/test/Documents/EPFL/MA1/Embedded/Lab4/lab_4_V2/sw/lab4_cam1_bsp/\libhal_bsp.a(alt_alarm_start.o)
 .bss           0x00000000101156d8        0x0 C:/Users/test/Documents/EPFL/MA1/Embedded/Lab4/lab_4_V2/sw/lab4_cam1_bsp/\libhal_bsp.a(alt_busy_sleep.o)
 .bss           0x00000000101156d8        0x0 C:/Users/test/Documents/EPFL/MA1/Embedded/Lab4/lab_4_V2/sw/lab4_cam1_bsp/\libhal_bsp.a(alt_dcache_flush_all.o)
 .bss           0x00000000101156d8        0x0 C:/Users/test/Documents/EPFL/MA1/Embedded/Lab4/lab_4_V2/sw/lab4_cam1_bsp/\libhal_bsp.a(alt_dev_llist_insert.o)
 .bss           0x00000000101156d8        0x0 C:/Users/test/Documents/EPFL/MA1/Embedded/Lab4/lab_4_V2/sw/lab4_cam1_bsp/\libhal_bsp.a(alt_do_ctors.o)
 .bss           0x00000000101156d8        0x0 C:/Users/test/Documents/EPFL/MA1/Embedded/Lab4/lab_4_V2/sw/lab4_cam1_bsp/\libhal_bsp.a(alt_do_dtors.o)
 .bss           0x00000000101156d8        0x0 C:/Users/test/Documents/EPFL/MA1/Embedded/Lab4/lab_4_V2/sw/lab4_cam1_bsp/\libhal_bsp.a(alt_find_dev.o)
 .bss           0x00000000101156d8        0x0 C:/Users/test/Documents/EPFL/MA1/Embedded/Lab4/lab_4_V2/sw/lab4_cam1_bsp/\libhal_bsp.a(alt_find_file.o)
 .bss           0x00000000101156d8        0x0 C:/Users/test/Documents/EPFL/MA1/Embedded/Lab4/lab_4_V2/sw/lab4_cam1_bsp/\libhal_bsp.a(alt_fs_reg.o)
 .bss           0x00000000101156d8        0x0 C:/Users/test/Documents/EPFL/MA1/Embedded/Lab4/lab_4_V2/sw/lab4_cam1_bsp/\libhal_bsp.a(alt_get_fd.o)
 .bss           0x00000000101156d8        0x0 C:/Users/test/Documents/EPFL/MA1/Embedded/Lab4/lab_4_V2/sw/lab4_cam1_bsp/\libhal_bsp.a(alt_icache_flush_all.o)
 .bss           0x00000000101156d8        0x0 C:/Users/test/Documents/EPFL/MA1/Embedded/Lab4/lab_4_V2/sw/lab4_cam1_bsp/\libhal_bsp.a(alt_iic.o)
 .bss           0x00000000101156d8        0x0 C:/Users/test/Documents/EPFL/MA1/Embedded/Lab4/lab_4_V2/sw/lab4_cam1_bsp/\libhal_bsp.a(alt_iic_isr_register.o)
 .bss           0x00000000101156d8        0x0 C:/Users/test/Documents/EPFL/MA1/Embedded/Lab4/lab_4_V2/sw/lab4_cam1_bsp/\libhal_bsp.a(alt_io_redirect.o)
 .bss           0x00000000101156d8        0x0 C:/Users/test/Documents/EPFL/MA1/Embedded/Lab4/lab_4_V2/sw/lab4_cam1_bsp/\libhal_bsp.a(alt_irq_entry.o)
 .bss           0x00000000101156d8        0x0 C:/Users/test/Documents/EPFL/MA1/Embedded/Lab4/lab_4_V2/sw/lab4_cam1_bsp/\libhal_bsp.a(alt_irq_handler.o)
 .bss           0x00000000101156d8        0x0 C:/Users/test/Documents/EPFL/MA1/Embedded/Lab4/lab_4_V2/sw/lab4_cam1_bsp/\libhal_bsp.a(alt_irq_vars.o)
 .bss           0x00000000101156d8        0x0 C:/Users/test/Documents/EPFL/MA1/Embedded/Lab4/lab_4_V2/sw/lab4_cam1_bsp/\libhal_bsp.a(alt_tick.o)
 .bss           0x00000000101156d8        0x0 C:/Users/test/Documents/EPFL/MA1/Embedded/Lab4/lab_4_V2/sw/lab4_cam1_bsp/\libhal_bsp.a(altera_nios2_gen2_irq.o)
 .bss           0x00000000101156d8        0x0 C:/Users/test/Documents/EPFL/MA1/Embedded/Lab4/lab_4_V2/sw/lab4_cam1_bsp/\libhal_bsp.a(alt_exception_entry.o)
 .bss           0x00000000101156d8        0x0 C:/Users/test/Documents/EPFL/MA1/Embedded/Lab4/lab_4_V2/sw/lab4_cam1_bsp/\libhal_bsp.a(alt_icache_flush.o)
 .bss           0x00000000101156d8        0x0 C:/Users/test/Documents/EPFL/MA1/Embedded/Lab4/lab_4_V2/sw/lab4_cam1_bsp/\libhal_bsp.a(alt_instruction_exception_entry.o)
 .bss           0x00000000101156d8        0x0 x:/quartus/18.1/nios2eds/bin/gnu/h-x86_64-mingw32/bin/../lib/gcc/nios2-elf/5.3.0/../../../../../H-x86_64-mingw32/nios2-elf/lib\libc.a(lib_a-atexit.o)
 .bss           0x00000000101156d8        0x0 x:/quartus/18.1/nios2eds/bin/gnu/h-x86_64-mingw32/bin/../lib/gcc/nios2-elf/5.3.0/../../../../../H-x86_64-mingw32/nios2-elf/lib\libc.a(lib_a-exit.o)
 .bss           0x00000000101156d8        0x0 x:/quartus/18.1/nios2eds/bin/gnu/h-x86_64-mingw32/bin/../lib/gcc/nios2-elf/5.3.0/../../../../../H-x86_64-mingw32/nios2-elf/lib\libc.a(lib_a-memcmp.o)
 .bss           0x00000000101156d8        0x0 x:/quartus/18.1/nios2eds/bin/gnu/h-x86_64-mingw32/bin/../lib/gcc/nios2-elf/5.3.0/../../../../../H-x86_64-mingw32/nios2-elf/lib\libc.a(lib_a-__atexit.o)
 .bss           0x00000000101156d8        0x0 x:/quartus/18.1/nios2eds/bin/gnu/h-x86_64-mingw32/bin/../lib/gcc/nios2-elf/5.3.0/../../../../../H-x86_64-mingw32/nios2-elf/lib\libc.a(lib_a-__call_atexit.o)
 .bss           0x00000000101156d8        0x0 C:/Users/test/Documents/EPFL/MA1/Embedded/Lab4/lab_4_V2/sw/lab4_cam1_bsp/\libhal_bsp.a(alt_exit.o)
 *(COMMON)
 COMMON         0x00000000101156d8      0x100 C:/Users/test/Documents/EPFL/MA1/Embedded/Lab4/lab_4_V2/sw/lab4_cam1_bsp/\libhal_bsp.a(alt_irq_handler.o)
                0x00000000101156d8                alt_irq
                0x00000000101157d8                . = ALIGN (0x4)
                0x00000000101157d8                __bss_end = ABSOLUTE (.)

.onchip_memory2_0
                0x00000000101157d8        0x0
                [!provide]                        PROVIDE (_alt_partition_onchip_memory2_0_start, ABSOLUTE (.))
 *(.onchip_memory2_0 .onchip_memory2_0. onchip_memory2_0.*)
                0x00000000101157d8                . = ALIGN (0x4)
                [!provide]                        PROVIDE (_alt_partition_onchip_memory2_0_end, ABSOLUTE (.))
                0x00000000101157d8                _end = ABSOLUTE (.)
                0x00000000101157d8                end = ABSOLUTE (.)
                0x00000000101157d8                __alt_stack_base = ABSOLUTE (.)
                [!provide]                        PROVIDE (_alt_partition_onchip_memory2_0_load_addr, LOADADDR (.onchip_memory2_0))

.stab
 *(.stab)

.stabstr
 *(.stabstr)

.stab.excl
 *(.stab.excl)

.stab.exclstr
 *(.stab.exclstr)

.stab.index
 *(.stab.index)

.stab.indexstr
 *(.stab.indexstr)

.comment        0x0000000000000000       0x23
 *(.comment)
 .comment       0x0000000000000000       0x23 obj/default/cmos_sensor_output_generator/cmos_sensor_output_generator.o
                                         0x24 (size before relaxing)
 .comment       0x0000000000000023       0x24 obj/default/hello_world.o
 .comment       0x0000000000000023       0x24 obj/default/i2c/i2c.o
 .comment       0x0000000000000023       0x24 x:/quartus/18.1/nios2eds/bin/gnu/h-x86_64-mingw32/bin/../lib/gcc/nios2-elf/5.3.0\libgcc.a(lib2-divmod.o)
 .comment       0x0000000000000023       0x24 x:/quartus/18.1/nios2eds/bin/gnu/h-x86_64-mingw32/bin/../lib/gcc/nios2-elf/5.3.0/../../../../../H-x86_64-mingw32/nios2-elf/lib\libc.a(lib_a-fclose.o)
 .comment       0x0000000000000023       0x24 x:/quartus/18.1/nios2eds/bin/gnu/h-x86_64-mingw32/bin/../lib/gcc/nios2-elf/5.3.0/../../../../../H-x86_64-mingw32/nios2-elf/lib\libc.a(lib_a-fflush.o)
 .comment       0x0000000000000023       0x24 x:/quartus/18.1/nios2eds/bin/gnu/h-x86_64-mingw32/bin/../lib/gcc/nios2-elf/5.3.0/../../../../../H-x86_64-mingw32/nios2-elf/lib\libc.a(lib_a-findfp.o)
 .comment       0x0000000000000023       0x24 x:/quartus/18.1/nios2eds/bin/gnu/h-x86_64-mingw32/bin/../lib/gcc/nios2-elf/5.3.0/../../../../../H-x86_64-mingw32/nios2-elf/lib\libc.a(lib_a-fopen.o)
 .comment       0x0000000000000023       0x24 x:/quartus/18.1/nios2eds/bin/gnu/h-x86_64-mingw32/bin/../lib/gcc/nios2-elf/5.3.0/../../../../../H-x86_64-mingw32/nios2-elf/lib\libc.a(lib_a-fprintf.o)
 .comment       0x0000000000000023       0x24 x:/quartus/18.1/nios2eds/bin/gnu/h-x86_64-mingw32/bin/../lib/gcc/nios2-elf/5.3.0/../../../../../H-x86_64-mingw32/nios2-elf/lib\libc.a(lib_a-fputc.o)
 .comment       0x0000000000000023       0x24 x:/quartus/18.1/nios2eds/bin/gnu/h-x86_64-mingw32/bin/../lib/gcc/nios2-elf/5.3.0/../../../../../H-x86_64-mingw32/nios2-elf/lib\libc.a(lib_a-freer.o)
 .comment       0x0000000000000023       0x24 x:/quartus/18.1/nios2eds/bin/gnu/h-x86_64-mingw32/bin/../lib/gcc/nios2-elf/5.3.0/../../../../../H-x86_64-mingw32/nios2-elf/lib\libc.a(lib_a-fseek.o)
 .comment       0x0000000000000023       0x24 x:/quartus/18.1/nios2eds/bin/gnu/h-x86_64-mingw32/bin/../lib/gcc/nios2-elf/5.3.0/../../../../../H-x86_64-mingw32/nios2-elf/lib\libc.a(lib_a-fseeko.o)
 .comment       0x0000000000000023       0x24 x:/quartus/18.1/nios2eds/bin/gnu/h-x86_64-mingw32/bin/../lib/gcc/nios2-elf/5.3.0/../../../../../H-x86_64-mingw32/nios2-elf/lib\libc.a(lib_a-fstatr.o)
 .comment       0x0000000000000023       0x24 x:/quartus/18.1/nios2eds/bin/gnu/h-x86_64-mingw32/bin/../lib/gcc/nios2-elf/5.3.0/../../../../../H-x86_64-mingw32/nios2-elf/lib\libc.a(lib_a-fwalk.o)
 .comment       0x0000000000000023       0x24 x:/quartus/18.1/nios2eds/bin/gnu/h-x86_64-mingw32/bin/../lib/gcc/nios2-elf/5.3.0/../../../../../H-x86_64-mingw32/nios2-elf/lib\libc.a(lib_a-impure.o)
 .comment       0x0000000000000023       0x24 x:/quartus/18.1/nios2eds/bin/gnu/h-x86_64-mingw32/bin/../lib/gcc/nios2-elf/5.3.0/../../../../../H-x86_64-mingw32/nios2-elf/lib\libc.a(lib_a-int_errno.o)
 .comment       0x0000000000000023       0x24 x:/quartus/18.1/nios2eds/bin/gnu/h-x86_64-mingw32/bin/../lib/gcc/nios2-elf/5.3.0/../../../../../H-x86_64-mingw32/nios2-elf/lib\libc.a(lib_a-makebuf.o)
 .comment       0x0000000000000023       0x24 x:/quartus/18.1/nios2eds/bin/gnu/h-x86_64-mingw32/bin/../lib/gcc/nios2-elf/5.3.0/../../../../../H-x86_64-mingw32/nios2-elf/lib\libc.a(lib_a-mallocr.o)
 .comment       0x0000000000000023       0x24 x:/quartus/18.1/nios2eds/bin/gnu/h-x86_64-mingw32/bin/../lib/gcc/nios2-elf/5.3.0/../../../../../H-x86_64-mingw32/nios2-elf/lib\libc.a(lib_a-memset.o)
 .comment       0x0000000000000023       0x24 x:/quartus/18.1/nios2eds/bin/gnu/h-x86_64-mingw32/bin/../lib/gcc/nios2-elf/5.3.0/../../../../../H-x86_64-mingw32/nios2-elf/lib\libc.a(lib_a-openr.o)
 .comment       0x0000000000000023       0x24 x:/quartus/18.1/nios2eds/bin/gnu/h-x86_64-mingw32/bin/../lib/gcc/nios2-elf/5.3.0/../../../../../H-x86_64-mingw32/nios2-elf/lib\libc.a(lib_a-printf.o)
 .comment       0x0000000000000023       0x24 x:/quartus/18.1/nios2eds/bin/gnu/h-x86_64-mingw32/bin/../lib/gcc/nios2-elf/5.3.0/../../../../../H-x86_64-mingw32/nios2-elf/lib\libc.a(lib_a-putc.o)
 .comment       0x0000000000000023       0x24 x:/quartus/18.1/nios2eds/bin/gnu/h-x86_64-mingw32/bin/../lib/gcc/nios2-elf/5.3.0/../../../../../H-x86_64-mingw32/nios2-elf/lib\libc.a(lib_a-puts.o)
 .comment       0x0000000000000023       0x24 x:/quartus/18.1/nios2eds/bin/gnu/h-x86_64-mingw32/bin/../lib/gcc/nios2-elf/5.3.0/../../../../../H-x86_64-mingw32/nios2-elf/lib\libc.a(lib_a-refill.o)
 .comment       0x0000000000000023       0x24 x:/quartus/18.1/nios2eds/bin/gnu/h-x86_64-mingw32/bin/../lib/gcc/nios2-elf/5.3.0/../../../../../H-x86_64-mingw32/nios2-elf/lib\libc.a(lib_a-rewind.o)
 .comment       0x0000000000000023       0x24 x:/quartus/18.1/nios2eds/bin/gnu/h-x86_64-mingw32/bin/../lib/gcc/nios2-elf/5.3.0/../../../../../H-x86_64-mingw32/nios2-elf/lib\libc.a(lib_a-sbrkr.o)
 .comment       0x0000000000000023       0x24 x:/quartus/18.1/nios2eds/bin/gnu/h-x86_64-mingw32/bin/../lib/gcc/nios2-elf/5.3.0/../../../../../H-x86_64-mingw32/nios2-elf/lib\libc.a(lib_a-stdio.o)
 .comment       0x0000000000000023       0x24 x:/quartus/18.1/nios2eds/bin/gnu/h-x86_64-mingw32/bin/../lib/gcc/nios2-elf/5.3.0/../../../../../H-x86_64-mingw32/nios2-elf/lib\libc.a(lib_a-strlen.o)
 .comment       0x0000000000000023       0x24 x:/quartus/18.1/nios2eds/bin/gnu/h-x86_64-mingw32/bin/../lib/gcc/nios2-elf/5.3.0/../../../../../H-x86_64-mingw32/nios2-elf/lib\libc.a(lib_a-vfprintf.o)
 .comment       0x0000000000000023       0x24 x:/quartus/18.1/nios2eds/bin/gnu/h-x86_64-mingw32/bin/../lib/gcc/nios2-elf/5.3.0/../../../../../H-x86_64-mingw32/nios2-elf/lib\libc.a(lib_a-wbuf.o)
 .comment       0x0000000000000023       0x24 x:/quartus/18.1/nios2eds/bin/gnu/h-x86_64-mingw32/bin/../lib/gcc/nios2-elf/5.3.0/../../../../../H-x86_64-mingw32/nios2-elf/lib\libc.a(lib_a-writer.o)
 .comment       0x0000000000000023       0x24 x:/quartus/18.1/nios2eds/bin/gnu/h-x86_64-mingw32/bin/../lib/gcc/nios2-elf/5.3.0/../../../../../H-x86_64-mingw32/nios2-elf/lib\libc.a(lib_a-wsetup.o)
 .comment       0x0000000000000023       0x24 x:/quartus/18.1/nios2eds/bin/gnu/h-x86_64-mingw32/bin/../lib/gcc/nios2-elf/5.3.0/../../../../../H-x86_64-mingw32/nios2-elf/lib\libc.a(closer.o)
 .comment       0x0000000000000023       0x24 x:/quartus/18.1/nios2eds/bin/gnu/h-x86_64-mingw32/bin/../lib/gcc/nios2-elf/5.3.0/../../../../../H-x86_64-mingw32/nios2-elf/lib\libc.a(lib_a-dtoa.o)
 .comment       0x0000000000000023       0x24 x:/quartus/18.1/nios2eds/bin/gnu/h-x86_64-mingw32/bin/../lib/gcc/nios2-elf/5.3.0/../../../../../H-x86_64-mingw32/nios2-elf/lib\libc.a(lib_a-flags.o)
 .comment       0x0000000000000023       0x24 x:/quartus/18.1/nios2eds/bin/gnu/h-x86_64-mingw32/bin/../lib/gcc/nios2-elf/5.3.0/../../../../../H-x86_64-mingw32/nios2-elf/lib\libc.a(lib_a-fvwrite.o)
 .comment       0x0000000000000023       0x24 x:/quartus/18.1/nios2eds/bin/gnu/h-x86_64-mingw32/bin/../lib/gcc/nios2-elf/5.3.0/../../../../../H-x86_64-mingw32/nios2-elf/lib\libc.a(lib_a-isattyr.o)
 .comment       0x0000000000000023       0x24 x:/quartus/18.1/nios2eds/bin/gnu/h-x86_64-mingw32/bin/../lib/gcc/nios2-elf/5.3.0/../../../../../H-x86_64-mingw32/nios2-elf/lib\libc.a(lib_a-locale.o)
 .comment       0x0000000000000023       0x24 x:/quartus/18.1/nios2eds/bin/gnu/h-x86_64-mingw32/bin/../lib/gcc/nios2-elf/5.3.0/../../../../../H-x86_64-mingw32/nios2-elf/lib\libc.a(lib_a-lseekr.o)
 .comment       0x0000000000000023       0x24 x:/quartus/18.1/nios2eds/bin/gnu/h-x86_64-mingw32/bin/../lib/gcc/nios2-elf/5.3.0/../../../../../H-x86_64-mingw32/nios2-elf/lib\libc.a(lib_a-memchr.o)
 .comment       0x0000000000000023       0x24 x:/quartus/18.1/nios2eds/bin/gnu/h-x86_64-mingw32/bin/../lib/gcc/nios2-elf/5.3.0/../../../../../H-x86_64-mingw32/nios2-elf/lib\libc.a(lib_a-memcpy.o)
 .comment       0x0000000000000023       0x24 x:/quartus/18.1/nios2eds/bin/gnu/h-x86_64-mingw32/bin/../lib/gcc/nios2-elf/5.3.0/../../../../../H-x86_64-mingw32/nios2-elf/lib\libc.a(lib_a-memmove.o)
 .comment       0x0000000000000023       0x24 x:/quartus/18.1/nios2eds/bin/gnu/h-x86_64-mingw32/bin/../lib/gcc/nios2-elf/5.3.0/../../../../../H-x86_64-mingw32/nios2-elf/lib\libc.a(lib_a-mprec.o)
 .comment       0x0000000000000023       0x24 x:/quartus/18.1/nios2eds/bin/gnu/h-x86_64-mingw32/bin/../lib/gcc/nios2-elf/5.3.0/../../../../../H-x86_64-mingw32/nios2-elf/lib\libc.a(lib_a-readr.o)
 .comment       0x0000000000000023       0x24 x:/quartus/18.1/nios2eds/bin/gnu/h-x86_64-mingw32/bin/../lib/gcc/nios2-elf/5.3.0/../../../../../H-x86_64-mingw32/nios2-elf/lib\libc.a(lib_a-reallocr.o)
 .comment       0x0000000000000023       0x24 x:/quartus/18.1/nios2eds/bin/gnu/h-x86_64-mingw32/bin/../lib/gcc/nios2-elf/5.3.0/../../../../../H-x86_64-mingw32/nios2-elf/lib\libc.a(lib_a-s_fpclassify.o)
 .comment       0x0000000000000023       0x24 x:/quartus/18.1/nios2eds/bin/gnu/h-x86_64-mingw32/bin/../lib/gcc/nios2-elf/5.3.0/../../../../../H-x86_64-mingw32/nios2-elf/lib\libc.a(lib_a-strcmp.o)
 .comment       0x0000000000000023       0x24 x:/quartus/18.1/nios2eds/bin/gnu/h-x86_64-mingw32/bin/../lib/gcc/nios2-elf/5.3.0/../../../../../H-x86_64-mingw32/nios2-elf/lib\libc.a(lib_a-vfiprintf.o)
 .comment       0x0000000000000023       0x24 x:/quartus/18.1/nios2eds/bin/gnu/h-x86_64-mingw32/bin/../lib/gcc/nios2-elf/5.3.0/../../../../../H-x86_64-mingw32/nios2-elf/lib\libc.a(lib_a-callocr.o)
 .comment       0x0000000000000023       0x24 x:/quartus/18.1/nios2eds/bin/gnu/h-x86_64-mingw32/bin/../lib/gcc/nios2-elf/5.3.0/../../../../../H-x86_64-mingw32/nios2-elf/lib\libc.a(lib_a-fputwc.o)
 .comment       0x0000000000000023       0x24 x:/quartus/18.1/nios2eds/bin/gnu/h-x86_64-mingw32/bin/../lib/gcc/nios2-elf/5.3.0/../../../../../H-x86_64-mingw32/nios2-elf/lib\libc.a(lib_a-wcrtomb.o)
 .comment       0x0000000000000023       0x24 x:/quartus/18.1/nios2eds/bin/gnu/h-x86_64-mingw32/bin/../lib/gcc/nios2-elf/5.3.0/../../../../../H-x86_64-mingw32/nios2-elf/lib\libc.a(lib_a-wctomb_r.o)
 .comment       0x0000000000000023       0x24 x:/quartus/18.1/nios2eds/bin/gnu/h-x86_64-mingw32/bin/../lib/gcc/nios2-elf/5.3.0\libgcc.a(_udivdi3.o)
 .comment       0x0000000000000023       0x24 x:/quartus/18.1/nios2eds/bin/gnu/h-x86_64-mingw32/bin/../lib/gcc/nios2-elf/5.3.0\libgcc.a(_umoddi3.o)
 .comment       0x0000000000000023       0x24 x:/quartus/18.1/nios2eds/bin/gnu/h-x86_64-mingw32/bin/../lib/gcc/nios2-elf/5.3.0\libgcc.a(adddf3.o)
 .comment       0x0000000000000023       0x24 x:/quartus/18.1/nios2eds/bin/gnu/h-x86_64-mingw32/bin/../lib/gcc/nios2-elf/5.3.0\libgcc.a(divdf3.o)
 .comment       0x0000000000000023       0x24 x:/quartus/18.1/nios2eds/bin/gnu/h-x86_64-mingw32/bin/../lib/gcc/nios2-elf/5.3.0\libgcc.a(eqdf2.o)
 .comment       0x0000000000000023       0x24 x:/quartus/18.1/nios2eds/bin/gnu/h-x86_64-mingw32/bin/../lib/gcc/nios2-elf/5.3.0\libgcc.a(gedf2.o)
 .comment       0x0000000000000023       0x24 x:/quartus/18.1/nios2eds/bin/gnu/h-x86_64-mingw32/bin/../lib/gcc/nios2-elf/5.3.0\libgcc.a(ledf2.o)
 .comment       0x0000000000000023       0x24 x:/quartus/18.1/nios2eds/bin/gnu/h-x86_64-mingw32/bin/../lib/gcc/nios2-elf/5.3.0\libgcc.a(muldf3.o)
 .comment       0x0000000000000023       0x24 x:/quartus/18.1/nios2eds/bin/gnu/h-x86_64-mingw32/bin/../lib/gcc/nios2-elf/5.3.0\libgcc.a(subdf3.o)
 .comment       0x0000000000000023       0x24 x:/quartus/18.1/nios2eds/bin/gnu/h-x86_64-mingw32/bin/../lib/gcc/nios2-elf/5.3.0\libgcc.a(fixdfsi.o)
 .comment       0x0000000000000023       0x24 x:/quartus/18.1/nios2eds/bin/gnu/h-x86_64-mingw32/bin/../lib/gcc/nios2-elf/5.3.0\libgcc.a(floatsidf.o)
 .comment       0x0000000000000023       0x24 x:/quartus/18.1/nios2eds/bin/gnu/h-x86_64-mingw32/bin/../lib/gcc/nios2-elf/5.3.0\libgcc.a(floatunsidf.o)
 .comment       0x0000000000000023       0x24 x:/quartus/18.1/nios2eds/bin/gnu/h-x86_64-mingw32/bin/../lib/gcc/nios2-elf/5.3.0\libgcc.a(_clz.o)
 .comment       0x0000000000000023       0x24 x:/quartus/18.1/nios2eds/bin/gnu/h-x86_64-mingw32/bin/../lib/gcc/nios2-elf/5.3.0\libgcc.a(_clzsi2.o)
 .comment       0x0000000000000023       0x24 C:/Users/test/Documents/EPFL/MA1/Embedded/Lab4/lab_4_V2/sw/lab4_cam1_bsp/\libhal_bsp.a(alt_close.o)
 .comment       0x0000000000000023       0x24 C:/Users/test/Documents/EPFL/MA1/Embedded/Lab4/lab_4_V2/sw/lab4_cam1_bsp/\libhal_bsp.a(alt_dev.o)
 .comment       0x0000000000000023       0x24 C:/Users/test/Documents/EPFL/MA1/Embedded/Lab4/lab_4_V2/sw/lab4_cam1_bsp/\libhal_bsp.a(alt_errno.o)
 .comment       0x0000000000000023       0x24 C:/Users/test/Documents/EPFL/MA1/Embedded/Lab4/lab_4_V2/sw/lab4_cam1_bsp/\libhal_bsp.a(alt_fstat.o)
 .comment       0x0000000000000023       0x24 C:/Users/test/Documents/EPFL/MA1/Embedded/Lab4/lab_4_V2/sw/lab4_cam1_bsp/\libhal_bsp.a(alt_isatty.o)
 .comment       0x0000000000000023       0x24 C:/Users/test/Documents/EPFL/MA1/Embedded/Lab4/lab_4_V2/sw/lab4_cam1_bsp/\libhal_bsp.a(alt_load.o)
 .comment       0x0000000000000023       0x24 C:/Users/test/Documents/EPFL/MA1/Embedded/Lab4/lab_4_V2/sw/lab4_cam1_bsp/\libhal_bsp.a(alt_lseek.o)
 .comment       0x0000000000000023       0x24 C:/Users/test/Documents/EPFL/MA1/Embedded/Lab4/lab_4_V2/sw/lab4_cam1_bsp/\libhal_bsp.a(alt_main.o)
 .comment       0x0000000000000023       0x24 C:/Users/test/Documents/EPFL/MA1/Embedded/Lab4/lab_4_V2/sw/lab4_cam1_bsp/\libhal_bsp.a(alt_malloc_lock.o)
 .comment       0x0000000000000023       0x24 C:/Users/test/Documents/EPFL/MA1/Embedded/Lab4/lab_4_V2/sw/lab4_cam1_bsp/\libhal_bsp.a(alt_open.o)
 .comment       0x0000000000000023       0x24 C:/Users/test/Documents/EPFL/MA1/Embedded/Lab4/lab_4_V2/sw/lab4_cam1_bsp/\libhal_bsp.a(alt_read.o)
 .comment       0x0000000000000023       0x24 C:/Users/test/Documents/EPFL/MA1/Embedded/Lab4/lab_4_V2/sw/lab4_cam1_bsp/\libhal_bsp.a(alt_release_fd.o)
 .comment       0x0000000000000023       0x24 C:/Users/test/Documents/EPFL/MA1/Embedded/Lab4/lab_4_V2/sw/lab4_cam1_bsp/\libhal_bsp.a(alt_sbrk.o)
 .comment       0x0000000000000023       0x24 C:/Users/test/Documents/EPFL/MA1/Embedded/Lab4/lab_4_V2/sw/lab4_cam1_bsp/\libhal_bsp.a(alt_usleep.o)
 .comment       0x0000000000000023       0x24 C:/Users/test/Documents/EPFL/MA1/Embedded/Lab4/lab_4_V2/sw/lab4_cam1_bsp/\libhal_bsp.a(alt_write.o)
 .comment       0x0000000000000023       0x24 C:/Users/test/Documents/EPFL/MA1/Embedded/Lab4/lab_4_V2/sw/lab4_cam1_bsp/\libhal_bsp.a(alt_sys_init.o)
 .comment       0x0000000000000023       0x24 C:/Users/test/Documents/EPFL/MA1/Embedded/Lab4/lab_4_V2/sw/lab4_cam1_bsp/\libhal_bsp.a(altera_avalon_jtag_uart_fd.o)
 .comment       0x0000000000000023       0x24 C:/Users/test/Documents/EPFL/MA1/Embedded/Lab4/lab_4_V2/sw/lab4_cam1_bsp/\libhal_bsp.a(altera_avalon_jtag_uart_init.o)
 .comment       0x0000000000000023       0x24 C:/Users/test/Documents/EPFL/MA1/Embedded/Lab4/lab_4_V2/sw/lab4_cam1_bsp/\libhal_bsp.a(altera_avalon_jtag_uart_ioctl.o)
 .comment       0x0000000000000023       0x24 C:/Users/test/Documents/EPFL/MA1/Embedded/Lab4/lab_4_V2/sw/lab4_cam1_bsp/\libhal_bsp.a(altera_avalon_jtag_uart_read.o)
 .comment       0x0000000000000023       0x24 C:/Users/test/Documents/EPFL/MA1/Embedded/Lab4/lab_4_V2/sw/lab4_cam1_bsp/\libhal_bsp.a(altera_avalon_jtag_uart_write.o)
 .comment       0x0000000000000023       0x24 C:/Users/test/Documents/EPFL/MA1/Embedded/Lab4/lab_4_V2/sw/lab4_cam1_bsp/\libhal_bsp.a(altera_hostfs.o)
 .comment       0x0000000000000023       0x24 C:/Users/test/Documents/EPFL/MA1/Embedded/Lab4/lab_4_V2/sw/lab4_cam1_bsp/\libhal_bsp.a(alt_alarm_start.o)
 .comment       0x0000000000000023       0x24 C:/Users/test/Documents/EPFL/MA1/Embedded/Lab4/lab_4_V2/sw/lab4_cam1_bsp/\libhal_bsp.a(alt_busy_sleep.o)
 .comment       0x0000000000000023       0x24 C:/Users/test/Documents/EPFL/MA1/Embedded/Lab4/lab_4_V2/sw/lab4_cam1_bsp/\libhal_bsp.a(alt_dcache_flush_all.o)
 .comment       0x0000000000000023       0x24 C:/Users/test/Documents/EPFL/MA1/Embedded/Lab4/lab_4_V2/sw/lab4_cam1_bsp/\libhal_bsp.a(alt_dev_llist_insert.o)
 .comment       0x0000000000000023       0x24 C:/Users/test/Documents/EPFL/MA1/Embedded/Lab4/lab_4_V2/sw/lab4_cam1_bsp/\libhal_bsp.a(alt_do_ctors.o)
 .comment       0x0000000000000023       0x24 C:/Users/test/Documents/EPFL/MA1/Embedded/Lab4/lab_4_V2/sw/lab4_cam1_bsp/\libhal_bsp.a(alt_do_dtors.o)
 .comment       0x0000000000000023       0x24 C:/Users/test/Documents/EPFL/MA1/Embedded/Lab4/lab_4_V2/sw/lab4_cam1_bsp/\libhal_bsp.a(alt_find_dev.o)
 .comment       0x0000000000000023       0x24 C:/Users/test/Documents/EPFL/MA1/Embedded/Lab4/lab_4_V2/sw/lab4_cam1_bsp/\libhal_bsp.a(alt_find_file.o)
 .comment       0x0000000000000023       0x24 C:/Users/test/Documents/EPFL/MA1/Embedded/Lab4/lab_4_V2/sw/lab4_cam1_bsp/\libhal_bsp.a(alt_fs_reg.o)
 .comment       0x0000000000000023       0x24 C:/Users/test/Documents/EPFL/MA1/Embedded/Lab4/lab_4_V2/sw/lab4_cam1_bsp/\libhal_bsp.a(alt_get_fd.o)
 .comment       0x0000000000000023       0x24 C:/Users/test/Documents/EPFL/MA1/Embedded/Lab4/lab_4_V2/sw/lab4_cam1_bsp/\libhal_bsp.a(alt_icache_flush_all.o)
 .comment       0x0000000000000023       0x24 C:/Users/test/Documents/EPFL/MA1/Embedded/Lab4/lab_4_V2/sw/lab4_cam1_bsp/\libhal_bsp.a(alt_iic.o)
 .comment       0x0000000000000023       0x24 C:/Users/test/Documents/EPFL/MA1/Embedded/Lab4/lab_4_V2/sw/lab4_cam1_bsp/\libhal_bsp.a(alt_iic_isr_register.o)
 .comment       0x0000000000000023       0x24 C:/Users/test/Documents/EPFL/MA1/Embedded/Lab4/lab_4_V2/sw/lab4_cam1_bsp/\libhal_bsp.a(alt_io_redirect.o)
 .comment       0x0000000000000023       0x24 C:/Users/test/Documents/EPFL/MA1/Embedded/Lab4/lab_4_V2/sw/lab4_cam1_bsp/\libhal_bsp.a(alt_irq_handler.o)
 .comment       0x0000000000000023       0x24 C:/Users/test/Documents/EPFL/MA1/Embedded/Lab4/lab_4_V2/sw/lab4_cam1_bsp/\libhal_bsp.a(alt_irq_vars.o)
 .comment       0x0000000000000023       0x24 C:/Users/test/Documents/EPFL/MA1/Embedded/Lab4/lab_4_V2/sw/lab4_cam1_bsp/\libhal_bsp.a(alt_tick.o)
 .comment       0x0000000000000023       0x24 C:/Users/test/Documents/EPFL/MA1/Embedded/Lab4/lab_4_V2/sw/lab4_cam1_bsp/\libhal_bsp.a(altera_nios2_gen2_irq.o)
 .comment       0x0000000000000023       0x24 C:/Users/test/Documents/EPFL/MA1/Embedded/Lab4/lab_4_V2/sw/lab4_cam1_bsp/\libhal_bsp.a(alt_icache_flush.o)
 .comment       0x0000000000000023       0x24 C:/Users/test/Documents/EPFL/MA1/Embedded/Lab4/lab_4_V2/sw/lab4_cam1_bsp/\libhal_bsp.a(alt_instruction_exception_entry.o)
 .comment       0x0000000000000023       0x24 x:/quartus/18.1/nios2eds/bin/gnu/h-x86_64-mingw32/bin/../lib/gcc/nios2-elf/5.3.0/../../../../../H-x86_64-mingw32/nios2-elf/lib\libc.a(lib_a-atexit.o)
 .comment       0x0000000000000023       0x24 x:/quartus/18.1/nios2eds/bin/gnu/h-x86_64-mingw32/bin/../lib/gcc/nios2-elf/5.3.0/../../../../../H-x86_64-mingw32/nios2-elf/lib\libc.a(lib_a-exit.o)
 .comment       0x0000000000000023       0x24 x:/quartus/18.1/nios2eds/bin/gnu/h-x86_64-mingw32/bin/../lib/gcc/nios2-elf/5.3.0/../../../../../H-x86_64-mingw32/nios2-elf/lib\libc.a(lib_a-memcmp.o)
 .comment       0x0000000000000023       0x24 x:/quartus/18.1/nios2eds/bin/gnu/h-x86_64-mingw32/bin/../lib/gcc/nios2-elf/5.3.0/../../../../../H-x86_64-mingw32/nios2-elf/lib\libc.a(lib_a-__atexit.o)
 .comment       0x0000000000000023       0x24 x:/quartus/18.1/nios2eds/bin/gnu/h-x86_64-mingw32/bin/../lib/gcc/nios2-elf/5.3.0/../../../../../H-x86_64-mingw32/nios2-elf/lib\libc.a(lib_a-__call_atexit.o)
 .comment       0x0000000000000023       0x24 C:/Users/test/Documents/EPFL/MA1/Embedded/Lab4/lab_4_V2/sw/lab4_cam1_bsp/\libhal_bsp.a(alt_exit.o)

.debug
 *(.debug)

.line
 *(.line)

.debug_srcinfo
 *(.debug_srcinfo)

.debug_sfnames
 *(.debug_sfnames)

.debug_aranges  0x0000000000000000     0x10d8
 *(.debug_aranges)
 .debug_aranges
                0x0000000000000000       0x28 C:/Users/test/Documents/EPFL/MA1/Embedded/Lab4/lab_4_V2/sw/lab4_cam1_bsp//obj/HAL/src/crt0.o
 .debug_aranges
                0x0000000000000028       0x20 obj/default/cmos_sensor_output_generator/cmos_sensor_output_generator.o
 .debug_aranges
                0x0000000000000048       0x20 obj/default/hello_world.o
 .debug_aranges
                0x0000000000000068       0x20 obj/default/i2c/i2c.o
 .debug_aranges
                0x0000000000000088       0x20 x:/quartus/18.1/nios2eds/bin/gnu/h-x86_64-mingw32/bin/../lib/gcc/nios2-elf/5.3.0\libgcc.a(lib2-divmod.o)
 .debug_aranges
                0x00000000000000a8       0x28 x:/quartus/18.1/nios2eds/bin/gnu/h-x86_64-mingw32/bin/../lib/gcc/nios2-elf/5.3.0/../../../../../H-x86_64-mingw32/nios2-elf/lib\libc.a(lib_a-fclose.o)
 .debug_aranges
                0x00000000000000d0       0x30 x:/quartus/18.1/nios2eds/bin/gnu/h-x86_64-mingw32/bin/../lib/gcc/nios2-elf/5.3.0/../../../../../H-x86_64-mingw32/nios2-elf/lib\libc.a(lib_a-fflush.o)
 .debug_aranges
                0x0000000000000100       0x68 x:/quartus/18.1/nios2eds/bin/gnu/h-x86_64-mingw32/bin/../lib/gcc/nios2-elf/5.3.0/../../../../../H-x86_64-mingw32/nios2-elf/lib\libc.a(lib_a-findfp.o)
 .debug_aranges
                0x0000000000000168       0x28 x:/quartus/18.1/nios2eds/bin/gnu/h-x86_64-mingw32/bin/../lib/gcc/nios2-elf/5.3.0/../../../../../H-x86_64-mingw32/nios2-elf/lib\libc.a(lib_a-fopen.o)
 .debug_aranges
                0x0000000000000190       0x28 x:/quartus/18.1/nios2eds/bin/gnu/h-x86_64-mingw32/bin/../lib/gcc/nios2-elf/5.3.0/../../../../../H-x86_64-mingw32/nios2-elf/lib\libc.a(lib_a-fprintf.o)
 .debug_aranges
                0x00000000000001b8       0x28 x:/quartus/18.1/nios2eds/bin/gnu/h-x86_64-mingw32/bin/../lib/gcc/nios2-elf/5.3.0/../../../../../H-x86_64-mingw32/nios2-elf/lib\libc.a(lib_a-fputc.o)
 .debug_aranges
                0x00000000000001e0       0x28 x:/quartus/18.1/nios2eds/bin/gnu/h-x86_64-mingw32/bin/../lib/gcc/nios2-elf/5.3.0/../../../../../H-x86_64-mingw32/nios2-elf/lib\libc.a(lib_a-freer.o)
 .debug_aranges
                0x0000000000000208       0x28 x:/quartus/18.1/nios2eds/bin/gnu/h-x86_64-mingw32/bin/../lib/gcc/nios2-elf/5.3.0/../../../../../H-x86_64-mingw32/nios2-elf/lib\libc.a(lib_a-fseek.o)
 .debug_aranges
                0x0000000000000230       0x28 x:/quartus/18.1/nios2eds/bin/gnu/h-x86_64-mingw32/bin/../lib/gcc/nios2-elf/5.3.0/../../../../../H-x86_64-mingw32/nios2-elf/lib\libc.a(lib_a-fseeko.o)
 .debug_aranges
                0x0000000000000258       0x20 x:/quartus/18.1/nios2eds/bin/gnu/h-x86_64-mingw32/bin/../lib/gcc/nios2-elf/5.3.0/../../../../../H-x86_64-mingw32/nios2-elf/lib\libc.a(lib_a-fstatr.o)
 .debug_aranges
                0x0000000000000278       0x28 x:/quartus/18.1/nios2eds/bin/gnu/h-x86_64-mingw32/bin/../lib/gcc/nios2-elf/5.3.0/../../../../../H-x86_64-mingw32/nios2-elf/lib\libc.a(lib_a-fwalk.o)
 .debug_aranges
                0x00000000000002a0       0x18 x:/quartus/18.1/nios2eds/bin/gnu/h-x86_64-mingw32/bin/../lib/gcc/nios2-elf/5.3.0/../../../../../H-x86_64-mingw32/nios2-elf/lib\libc.a(lib_a-impure.o)
 .debug_aranges
                0x00000000000002b8       0x18 x:/quartus/18.1/nios2eds/bin/gnu/h-x86_64-mingw32/bin/../lib/gcc/nios2-elf/5.3.0/../../../../../H-x86_64-mingw32/nios2-elf/lib\libc.a(lib_a-int_errno.o)
 .debug_aranges
                0x00000000000002d0       0x20 x:/quartus/18.1/nios2eds/bin/gnu/h-x86_64-mingw32/bin/../lib/gcc/nios2-elf/5.3.0/../../../../../H-x86_64-mingw32/nios2-elf/lib\libc.a(lib_a-makebuf.o)
 .debug_aranges
                0x00000000000002f0       0x20 x:/quartus/18.1/nios2eds/bin/gnu/h-x86_64-mingw32/bin/../lib/gcc/nios2-elf/5.3.0/../../../../../H-x86_64-mingw32/nios2-elf/lib\libc.a(lib_a-mallocr.o)
 .debug_aranges
                0x0000000000000310       0x20 x:/quartus/18.1/nios2eds/bin/gnu/h-x86_64-mingw32/bin/../lib/gcc/nios2-elf/5.3.0/../../../../../H-x86_64-mingw32/nios2-elf/lib\libc.a(lib_a-memset.o)
 .debug_aranges
                0x0000000000000330       0x20 x:/quartus/18.1/nios2eds/bin/gnu/h-x86_64-mingw32/bin/../lib/gcc/nios2-elf/5.3.0/../../../../../H-x86_64-mingw32/nios2-elf/lib\libc.a(lib_a-openr.o)
 .debug_aranges
                0x0000000000000350       0x28 x:/quartus/18.1/nios2eds/bin/gnu/h-x86_64-mingw32/bin/../lib/gcc/nios2-elf/5.3.0/../../../../../H-x86_64-mingw32/nios2-elf/lib\libc.a(lib_a-printf.o)
 .debug_aranges
                0x0000000000000378       0x28 x:/quartus/18.1/nios2eds/bin/gnu/h-x86_64-mingw32/bin/../lib/gcc/nios2-elf/5.3.0/../../../../../H-x86_64-mingw32/nios2-elf/lib\libc.a(lib_a-putc.o)
 .debug_aranges
                0x00000000000003a0       0x28 x:/quartus/18.1/nios2eds/bin/gnu/h-x86_64-mingw32/bin/../lib/gcc/nios2-elf/5.3.0/../../../../../H-x86_64-mingw32/nios2-elf/lib\libc.a(lib_a-puts.o)
 .debug_aranges
                0x00000000000003c8       0x28 x:/quartus/18.1/nios2eds/bin/gnu/h-x86_64-mingw32/bin/../lib/gcc/nios2-elf/5.3.0/../../../../../H-x86_64-mingw32/nios2-elf/lib\libc.a(lib_a-refill.o)
 .debug_aranges
                0x00000000000003f0       0x28 x:/quartus/18.1/nios2eds/bin/gnu/h-x86_64-mingw32/bin/../lib/gcc/nios2-elf/5.3.0/../../../../../H-x86_64-mingw32/nios2-elf/lib\libc.a(lib_a-rewind.o)
 .debug_aranges
                0x0000000000000418       0x20 x:/quartus/18.1/nios2eds/bin/gnu/h-x86_64-mingw32/bin/../lib/gcc/nios2-elf/5.3.0/../../../../../H-x86_64-mingw32/nios2-elf/lib\libc.a(lib_a-sbrkr.o)
 .debug_aranges
                0x0000000000000438       0x40 x:/quartus/18.1/nios2eds/bin/gnu/h-x86_64-mingw32/bin/../lib/gcc/nios2-elf/5.3.0/../../../../../H-x86_64-mingw32/nios2-elf/lib\libc.a(lib_a-stdio.o)
 .debug_aranges
                0x0000000000000478       0x20 x:/quartus/18.1/nios2eds/bin/gnu/h-x86_64-mingw32/bin/../lib/gcc/nios2-elf/5.3.0/../../../../../H-x86_64-mingw32/nios2-elf/lib\libc.a(lib_a-strlen.o)
 .debug_aranges
                0x0000000000000498       0x30 x:/quartus/18.1/nios2eds/bin/gnu/h-x86_64-mingw32/bin/../lib/gcc/nios2-elf/5.3.0/../../../../../H-x86_64-mingw32/nios2-elf/lib\libc.a(lib_a-vfprintf.o)
 .debug_aranges
                0x00000000000004c8       0x28 x:/quartus/18.1/nios2eds/bin/gnu/h-x86_64-mingw32/bin/../lib/gcc/nios2-elf/5.3.0/../../../../../H-x86_64-mingw32/nios2-elf/lib\libc.a(lib_a-wbuf.o)
 .debug_aranges
                0x00000000000004f0       0x20 x:/quartus/18.1/nios2eds/bin/gnu/h-x86_64-mingw32/bin/../lib/gcc/nios2-elf/5.3.0/../../../../../H-x86_64-mingw32/nios2-elf/lib\libc.a(lib_a-writer.o)
 .debug_aranges
                0x0000000000000510       0x20 x:/quartus/18.1/nios2eds/bin/gnu/h-x86_64-mingw32/bin/../lib/gcc/nios2-elf/5.3.0/../../../../../H-x86_64-mingw32/nios2-elf/lib\libc.a(lib_a-wsetup.o)
 .debug_aranges
                0x0000000000000530       0x20 x:/quartus/18.1/nios2eds/bin/gnu/h-x86_64-mingw32/bin/../lib/gcc/nios2-elf/5.3.0/../../../../../H-x86_64-mingw32/nios2-elf/lib\libc.a(closer.o)
 .debug_aranges
                0x0000000000000550       0x28 x:/quartus/18.1/nios2eds/bin/gnu/h-x86_64-mingw32/bin/../lib/gcc/nios2-elf/5.3.0/../../../../../H-x86_64-mingw32/nios2-elf/lib\libc.a(lib_a-dtoa.o)
 .debug_aranges
                0x0000000000000578       0x20 x:/quartus/18.1/nios2eds/bin/gnu/h-x86_64-mingw32/bin/../lib/gcc/nios2-elf/5.3.0/../../../../../H-x86_64-mingw32/nios2-elf/lib\libc.a(lib_a-flags.o)
 .debug_aranges
                0x0000000000000598       0x20 x:/quartus/18.1/nios2eds/bin/gnu/h-x86_64-mingw32/bin/../lib/gcc/nios2-elf/5.3.0/../../../../../H-x86_64-mingw32/nios2-elf/lib\libc.a(lib_a-fvwrite.o)
 .debug_aranges
                0x00000000000005b8       0x20 x:/quartus/18.1/nios2eds/bin/gnu/h-x86_64-mingw32/bin/../lib/gcc/nios2-elf/5.3.0/../../../../../H-x86_64-mingw32/nios2-elf/lib\libc.a(lib_a-isattyr.o)
 .debug_aranges
                0x00000000000005d8       0x58 x:/quartus/18.1/nios2eds/bin/gnu/h-x86_64-mingw32/bin/../lib/gcc/nios2-elf/5.3.0/../../../../../H-x86_64-mingw32/nios2-elf/lib\libc.a(lib_a-locale.o)
 .debug_aranges
                0x0000000000000630       0x20 x:/quartus/18.1/nios2eds/bin/gnu/h-x86_64-mingw32/bin/../lib/gcc/nios2-elf/5.3.0/../../../../../H-x86_64-mingw32/nios2-elf/lib\libc.a(lib_a-lseekr.o)
 .debug_aranges
                0x0000000000000650       0x20 x:/quartus/18.1/nios2eds/bin/gnu/h-x86_64-mingw32/bin/../lib/gcc/nios2-elf/5.3.0/../../../../../H-x86_64-mingw32/nios2-elf/lib\libc.a(lib_a-memchr.o)
 .debug_aranges
                0x0000000000000670       0x20 x:/quartus/18.1/nios2eds/bin/gnu/h-x86_64-mingw32/bin/../lib/gcc/nios2-elf/5.3.0/../../../../../H-x86_64-mingw32/nios2-elf/lib\libc.a(lib_a-memcpy.o)
 .debug_aranges
                0x0000000000000690       0x20 x:/quartus/18.1/nios2eds/bin/gnu/h-x86_64-mingw32/bin/../lib/gcc/nios2-elf/5.3.0/../../../../../H-x86_64-mingw32/nios2-elf/lib\libc.a(lib_a-memmove.o)
 .debug_aranges
                0x00000000000006b0       0xb0 x:/quartus/18.1/nios2eds/bin/gnu/h-x86_64-mingw32/bin/../lib/gcc/nios2-elf/5.3.0/../../../../../H-x86_64-mingw32/nios2-elf/lib\libc.a(lib_a-mprec.o)
 .debug_aranges
                0x0000000000000760       0x20 x:/quartus/18.1/nios2eds/bin/gnu/h-x86_64-mingw32/bin/../lib/gcc/nios2-elf/5.3.0/../../../../../H-x86_64-mingw32/nios2-elf/lib\libc.a(lib_a-readr.o)
 .debug_aranges
                0x0000000000000780       0x20 x:/quartus/18.1/nios2eds/bin/gnu/h-x86_64-mingw32/bin/../lib/gcc/nios2-elf/5.3.0/../../../../../H-x86_64-mingw32/nios2-elf/lib\libc.a(lib_a-reallocr.o)
 .debug_aranges
                0x00000000000007a0       0x20 x:/quartus/18.1/nios2eds/bin/gnu/h-x86_64-mingw32/bin/../lib/gcc/nios2-elf/5.3.0/../../../../../H-x86_64-mingw32/nios2-elf/lib\libc.a(lib_a-s_fpclassify.o)
 .debug_aranges
                0x00000000000007c0       0x20 x:/quartus/18.1/nios2eds/bin/gnu/h-x86_64-mingw32/bin/../lib/gcc/nios2-elf/5.3.0/../../../../../H-x86_64-mingw32/nios2-elf/lib\libc.a(lib_a-strcmp.o)
 .debug_aranges
                0x00000000000007e0       0x40 x:/quartus/18.1/nios2eds/bin/gnu/h-x86_64-mingw32/bin/../lib/gcc/nios2-elf/5.3.0/../../../../../H-x86_64-mingw32/nios2-elf/lib\libc.a(lib_a-vfiprintf.o)
 .debug_aranges
                0x0000000000000820       0x20 x:/quartus/18.1/nios2eds/bin/gnu/h-x86_64-mingw32/bin/../lib/gcc/nios2-elf/5.3.0/../../../../../H-x86_64-mingw32/nios2-elf/lib\libc.a(lib_a-callocr.o)
 .debug_aranges
                0x0000000000000840       0x30 x:/quartus/18.1/nios2eds/bin/gnu/h-x86_64-mingw32/bin/../lib/gcc/nios2-elf/5.3.0/../../../../../H-x86_64-mingw32/nios2-elf/lib\libc.a(lib_a-fputwc.o)
 .debug_aranges
                0x0000000000000870       0x28 x:/quartus/18.1/nios2eds/bin/gnu/h-x86_64-mingw32/bin/../lib/gcc/nios2-elf/5.3.0/../../../../../H-x86_64-mingw32/nios2-elf/lib\libc.a(lib_a-wcrtomb.o)
 .debug_aranges
                0x0000000000000898       0x28 x:/quartus/18.1/nios2eds/bin/gnu/h-x86_64-mingw32/bin/../lib/gcc/nios2-elf/5.3.0/../../../../../H-x86_64-mingw32/nios2-elf/lib\libc.a(lib_a-wctomb_r.o)
 .debug_aranges
                0x00000000000008c0       0x20 x:/quartus/18.1/nios2eds/bin/gnu/h-x86_64-mingw32/bin/../lib/gcc/nios2-elf/5.3.0\libgcc.a(_udivdi3.o)
 .debug_aranges
                0x00000000000008e0       0x20 x:/quartus/18.1/nios2eds/bin/gnu/h-x86_64-mingw32/bin/../lib/gcc/nios2-elf/5.3.0\libgcc.a(_umoddi3.o)
 .debug_aranges
                0x0000000000000900       0x20 x:/quartus/18.1/nios2eds/bin/gnu/h-x86_64-mingw32/bin/../lib/gcc/nios2-elf/5.3.0\libgcc.a(adddf3.o)
 .debug_aranges
                0x0000000000000920       0x20 x:/quartus/18.1/nios2eds/bin/gnu/h-x86_64-mingw32/bin/../lib/gcc/nios2-elf/5.3.0\libgcc.a(divdf3.o)
 .debug_aranges
                0x0000000000000940       0x20 x:/quartus/18.1/nios2eds/bin/gnu/h-x86_64-mingw32/bin/../lib/gcc/nios2-elf/5.3.0\libgcc.a(eqdf2.o)
 .debug_aranges
                0x0000000000000960       0x20 x:/quartus/18.1/nios2eds/bin/gnu/h-x86_64-mingw32/bin/../lib/gcc/nios2-elf/5.3.0\libgcc.a(gedf2.o)
 .debug_aranges
                0x0000000000000980       0x20 x:/quartus/18.1/nios2eds/bin/gnu/h-x86_64-mingw32/bin/../lib/gcc/nios2-elf/5.3.0\libgcc.a(ledf2.o)
 .debug_aranges
                0x00000000000009a0       0x20 x:/quartus/18.1/nios2eds/bin/gnu/h-x86_64-mingw32/bin/../lib/gcc/nios2-elf/5.3.0\libgcc.a(muldf3.o)
 .debug_aranges
                0x00000000000009c0       0x20 x:/quartus/18.1/nios2eds/bin/gnu/h-x86_64-mingw32/bin/../lib/gcc/nios2-elf/5.3.0\libgcc.a(subdf3.o)
 .debug_aranges
                0x00000000000009e0       0x20 x:/quartus/18.1/nios2eds/bin/gnu/h-x86_64-mingw32/bin/../lib/gcc/nios2-elf/5.3.0\libgcc.a(fixdfsi.o)
 .debug_aranges
                0x0000000000000a00       0x20 x:/quartus/18.1/nios2eds/bin/gnu/h-x86_64-mingw32/bin/../lib/gcc/nios2-elf/5.3.0\libgcc.a(floatsidf.o)
 .debug_aranges
                0x0000000000000a20       0x20 x:/quartus/18.1/nios2eds/bin/gnu/h-x86_64-mingw32/bin/../lib/gcc/nios2-elf/5.3.0\libgcc.a(floatunsidf.o)
 .debug_aranges
                0x0000000000000a40       0x18 x:/quartus/18.1/nios2eds/bin/gnu/h-x86_64-mingw32/bin/../lib/gcc/nios2-elf/5.3.0\libgcc.a(_clz.o)
 .debug_aranges
                0x0000000000000a58       0x20 x:/quartus/18.1/nios2eds/bin/gnu/h-x86_64-mingw32/bin/../lib/gcc/nios2-elf/5.3.0\libgcc.a(_clzsi2.o)
 .debug_aranges
                0x0000000000000a78       0x20 C:/Users/test/Documents/EPFL/MA1/Embedded/Lab4/lab_4_V2/sw/lab4_cam1_bsp/\libhal_bsp.a(alt_close.o)
 .debug_aranges
                0x0000000000000a98       0x20 C:/Users/test/Documents/EPFL/MA1/Embedded/Lab4/lab_4_V2/sw/lab4_cam1_bsp/\libhal_bsp.a(alt_dev.o)
 .debug_aranges
                0x0000000000000ab8       0x18 C:/Users/test/Documents/EPFL/MA1/Embedded/Lab4/lab_4_V2/sw/lab4_cam1_bsp/\libhal_bsp.a(alt_errno.o)
 .debug_aranges
                0x0000000000000ad0       0x20 C:/Users/test/Documents/EPFL/MA1/Embedded/Lab4/lab_4_V2/sw/lab4_cam1_bsp/\libhal_bsp.a(alt_fstat.o)
 .debug_aranges
                0x0000000000000af0       0x20 C:/Users/test/Documents/EPFL/MA1/Embedded/Lab4/lab_4_V2/sw/lab4_cam1_bsp/\libhal_bsp.a(alt_isatty.o)
 .debug_aranges
                0x0000000000000b10       0x20 C:/Users/test/Documents/EPFL/MA1/Embedded/Lab4/lab_4_V2/sw/lab4_cam1_bsp/\libhal_bsp.a(alt_load.o)
 .debug_aranges
                0x0000000000000b30       0x20 C:/Users/test/Documents/EPFL/MA1/Embedded/Lab4/lab_4_V2/sw/lab4_cam1_bsp/\libhal_bsp.a(alt_lseek.o)
 .debug_aranges
                0x0000000000000b50       0x20 C:/Users/test/Documents/EPFL/MA1/Embedded/Lab4/lab_4_V2/sw/lab4_cam1_bsp/\libhal_bsp.a(alt_main.o)
 .debug_aranges
                0x0000000000000b70       0x20 C:/Users/test/Documents/EPFL/MA1/Embedded/Lab4/lab_4_V2/sw/lab4_cam1_bsp/\libhal_bsp.a(alt_malloc_lock.o)
 .debug_aranges
                0x0000000000000b90       0x20 C:/Users/test/Documents/EPFL/MA1/Embedded/Lab4/lab_4_V2/sw/lab4_cam1_bsp/\libhal_bsp.a(alt_open.o)
 .debug_aranges
                0x0000000000000bb0       0x20 C:/Users/test/Documents/EPFL/MA1/Embedded/Lab4/lab_4_V2/sw/lab4_cam1_bsp/\libhal_bsp.a(alt_read.o)
 .debug_aranges
                0x0000000000000bd0       0x20 C:/Users/test/Documents/EPFL/MA1/Embedded/Lab4/lab_4_V2/sw/lab4_cam1_bsp/\libhal_bsp.a(alt_release_fd.o)
 .debug_aranges
                0x0000000000000bf0       0x20 C:/Users/test/Documents/EPFL/MA1/Embedded/Lab4/lab_4_V2/sw/lab4_cam1_bsp/\libhal_bsp.a(alt_sbrk.o)
 .debug_aranges
                0x0000000000000c10       0x20 C:/Users/test/Documents/EPFL/MA1/Embedded/Lab4/lab_4_V2/sw/lab4_cam1_bsp/\libhal_bsp.a(alt_usleep.o)
 .debug_aranges
                0x0000000000000c30       0x20 C:/Users/test/Documents/EPFL/MA1/Embedded/Lab4/lab_4_V2/sw/lab4_cam1_bsp/\libhal_bsp.a(alt_write.o)
 .debug_aranges
                0x0000000000000c50       0x20 C:/Users/test/Documents/EPFL/MA1/Embedded/Lab4/lab_4_V2/sw/lab4_cam1_bsp/\libhal_bsp.a(alt_sys_init.o)
 .debug_aranges
                0x0000000000000c70       0x20 C:/Users/test/Documents/EPFL/MA1/Embedded/Lab4/lab_4_V2/sw/lab4_cam1_bsp/\libhal_bsp.a(altera_avalon_jtag_uart_fd.o)
 .debug_aranges
                0x0000000000000c90       0x20 C:/Users/test/Documents/EPFL/MA1/Embedded/Lab4/lab_4_V2/sw/lab4_cam1_bsp/\libhal_bsp.a(altera_avalon_jtag_uart_init.o)
 .debug_aranges
                0x0000000000000cb0       0x20 C:/Users/test/Documents/EPFL/MA1/Embedded/Lab4/lab_4_V2/sw/lab4_cam1_bsp/\libhal_bsp.a(altera_avalon_jtag_uart_ioctl.o)
 .debug_aranges
                0x0000000000000cd0       0x20 C:/Users/test/Documents/EPFL/MA1/Embedded/Lab4/lab_4_V2/sw/lab4_cam1_bsp/\libhal_bsp.a(altera_avalon_jtag_uart_read.o)
 .debug_aranges
                0x0000000000000cf0       0x20 C:/Users/test/Documents/EPFL/MA1/Embedded/Lab4/lab_4_V2/sw/lab4_cam1_bsp/\libhal_bsp.a(altera_avalon_jtag_uart_write.o)
 .debug_aranges
                0x0000000000000d10       0x20 C:/Users/test/Documents/EPFL/MA1/Embedded/Lab4/lab_4_V2/sw/lab4_cam1_bsp/\libhal_bsp.a(altera_hostfs.o)
 .debug_aranges
                0x0000000000000d30       0x20 C:/Users/test/Documents/EPFL/MA1/Embedded/Lab4/lab_4_V2/sw/lab4_cam1_bsp/\libhal_bsp.a(alt_alarm_start.o)
 .debug_aranges
                0x0000000000000d50       0x20 C:/Users/test/Documents/EPFL/MA1/Embedded/Lab4/lab_4_V2/sw/lab4_cam1_bsp/\libhal_bsp.a(alt_busy_sleep.o)
 .debug_aranges
                0x0000000000000d70       0x20 C:/Users/test/Documents/EPFL/MA1/Embedded/Lab4/lab_4_V2/sw/lab4_cam1_bsp/\libhal_bsp.a(alt_dcache_flush_all.o)
 .debug_aranges
                0x0000000000000d90       0x20 C:/Users/test/Documents/EPFL/MA1/Embedded/Lab4/lab_4_V2/sw/lab4_cam1_bsp/\libhal_bsp.a(alt_dev_llist_insert.o)
 .debug_aranges
                0x0000000000000db0       0x20 C:/Users/test/Documents/EPFL/MA1/Embedded/Lab4/lab_4_V2/sw/lab4_cam1_bsp/\libhal_bsp.a(alt_do_ctors.o)
 .debug_aranges
                0x0000000000000dd0       0x20 C:/Users/test/Documents/EPFL/MA1/Embedded/Lab4/lab_4_V2/sw/lab4_cam1_bsp/\libhal_bsp.a(alt_do_dtors.o)
 .debug_aranges
                0x0000000000000df0       0x20 C:/Users/test/Documents/EPFL/MA1/Embedded/Lab4/lab_4_V2/sw/lab4_cam1_bsp/\libhal_bsp.a(alt_find_dev.o)
 .debug_aranges
                0x0000000000000e10       0x20 C:/Users/test/Documents/EPFL/MA1/Embedded/Lab4/lab_4_V2/sw/lab4_cam1_bsp/\libhal_bsp.a(alt_find_file.o)
 .debug_aranges
                0x0000000000000e30       0x20 C:/Users/test/Documents/EPFL/MA1/Embedded/Lab4/lab_4_V2/sw/lab4_cam1_bsp/\libhal_bsp.a(alt_fs_reg.o)
 .debug_aranges
                0x0000000000000e50       0x20 C:/Users/test/Documents/EPFL/MA1/Embedded/Lab4/lab_4_V2/sw/lab4_cam1_bsp/\libhal_bsp.a(alt_get_fd.o)
 .debug_aranges
                0x0000000000000e70       0x20 C:/Users/test/Documents/EPFL/MA1/Embedded/Lab4/lab_4_V2/sw/lab4_cam1_bsp/\libhal_bsp.a(alt_icache_flush_all.o)
 .debug_aranges
                0x0000000000000e90       0x20 C:/Users/test/Documents/EPFL/MA1/Embedded/Lab4/lab_4_V2/sw/lab4_cam1_bsp/\libhal_bsp.a(alt_iic.o)
 .debug_aranges
                0x0000000000000eb0       0x20 C:/Users/test/Documents/EPFL/MA1/Embedded/Lab4/lab_4_V2/sw/lab4_cam1_bsp/\libhal_bsp.a(alt_iic_isr_register.o)
 .debug_aranges
                0x0000000000000ed0       0x20 C:/Users/test/Documents/EPFL/MA1/Embedded/Lab4/lab_4_V2/sw/lab4_cam1_bsp/\libhal_bsp.a(alt_io_redirect.o)
 .debug_aranges
                0x0000000000000ef0       0x30 C:/Users/test/Documents/EPFL/MA1/Embedded/Lab4/lab_4_V2/sw/lab4_cam1_bsp/\libhal_bsp.a(alt_irq_entry.o)
 .debug_aranges
                0x0000000000000f20       0x20 C:/Users/test/Documents/EPFL/MA1/Embedded/Lab4/lab_4_V2/sw/lab4_cam1_bsp/\libhal_bsp.a(alt_irq_handler.o)
 .debug_aranges
                0x0000000000000f40       0x18 C:/Users/test/Documents/EPFL/MA1/Embedded/Lab4/lab_4_V2/sw/lab4_cam1_bsp/\libhal_bsp.a(alt_irq_vars.o)
 .debug_aranges
                0x0000000000000f58       0x20 C:/Users/test/Documents/EPFL/MA1/Embedded/Lab4/lab_4_V2/sw/lab4_cam1_bsp/\libhal_bsp.a(alt_tick.o)
 .debug_aranges
                0x0000000000000f78       0x20 C:/Users/test/Documents/EPFL/MA1/Embedded/Lab4/lab_4_V2/sw/lab4_cam1_bsp/\libhal_bsp.a(altera_nios2_gen2_irq.o)
 .debug_aranges
                0x0000000000000f98       0x38 C:/Users/test/Documents/EPFL/MA1/Embedded/Lab4/lab_4_V2/sw/lab4_cam1_bsp/\libhal_bsp.a(alt_exception_entry.o)
 .debug_aranges
                0x0000000000000fd0       0x20 C:/Users/test/Documents/EPFL/MA1/Embedded/Lab4/lab_4_V2/sw/lab4_cam1_bsp/\libhal_bsp.a(alt_icache_flush.o)
 .debug_aranges
                0x0000000000000ff0       0x28 C:/Users/test/Documents/EPFL/MA1/Embedded/Lab4/lab_4_V2/sw/lab4_cam1_bsp/\libhal_bsp.a(alt_instruction_exception_entry.o)
 .debug_aranges
                0x0000000000001018       0x20 x:/quartus/18.1/nios2eds/bin/gnu/h-x86_64-mingw32/bin/../lib/gcc/nios2-elf/5.3.0/../../../../../H-x86_64-mingw32/nios2-elf/lib\libc.a(lib_a-atexit.o)
 .debug_aranges
                0x0000000000001038       0x20 x:/quartus/18.1/nios2eds/bin/gnu/h-x86_64-mingw32/bin/../lib/gcc/nios2-elf/5.3.0/../../../../../H-x86_64-mingw32/nios2-elf/lib\libc.a(lib_a-exit.o)
 .debug_aranges
                0x0000000000001058       0x20 x:/quartus/18.1/nios2eds/bin/gnu/h-x86_64-mingw32/bin/../lib/gcc/nios2-elf/5.3.0/../../../../../H-x86_64-mingw32/nios2-elf/lib\libc.a(lib_a-memcmp.o)
 .debug_aranges
                0x0000000000001078       0x20 x:/quartus/18.1/nios2eds/bin/gnu/h-x86_64-mingw32/bin/../lib/gcc/nios2-elf/5.3.0/../../../../../H-x86_64-mingw32/nios2-elf/lib\libc.a(lib_a-__atexit.o)
 .debug_aranges
                0x0000000000001098       0x20 x:/quartus/18.1/nios2eds/bin/gnu/h-x86_64-mingw32/bin/../lib/gcc/nios2-elf/5.3.0/../../../../../H-x86_64-mingw32/nios2-elf/lib\libc.a(lib_a-__call_atexit.o)
 .debug_aranges
                0x00000000000010b8       0x20 C:/Users/test/Documents/EPFL/MA1/Embedded/Lab4/lab_4_V2/sw/lab4_cam1_bsp/\libhal_bsp.a(alt_exit.o)

.debug_pubnames
 *(.debug_pubnames)

.debug_info     0x0000000000000000    0x2b846
 *(.debug_info .gnu.linkonce.wi.*)
 .debug_info    0x0000000000000000       0x7d C:/Users/test/Documents/EPFL/MA1/Embedded/Lab4/lab_4_V2/sw/lab4_cam1_bsp//obj/HAL/src/crt0.o
 .debug_info    0x000000000000007d      0x639 obj/default/cmos_sensor_output_generator/cmos_sensor_output_generator.o
 .debug_info    0x00000000000006b6      0xa69 obj/default/hello_world.o
 .debug_info    0x000000000000111f      0x3d6 obj/default/i2c/i2c.o
 .debug_info    0x00000000000014f5      0x2c6 x:/quartus/18.1/nios2eds/bin/gnu/h-x86_64-mingw32/bin/../lib/gcc/nios2-elf/5.3.0\libgcc.a(lib2-divmod.o)
 .debug_info    0x00000000000017bb      0xa23 x:/quartus/18.1/nios2eds/bin/gnu/h-x86_64-mingw32/bin/../lib/gcc/nios2-elf/5.3.0/../../../../../H-x86_64-mingw32/nios2-elf/lib\libc.a(lib_a-fclose.o)
 .debug_info    0x00000000000021de      0xa93 x:/quartus/18.1/nios2eds/bin/gnu/h-x86_64-mingw32/bin/../lib/gcc/nios2-elf/5.3.0/../../../../../H-x86_64-mingw32/nios2-elf/lib\libc.a(lib_a-fflush.o)
 .debug_info    0x0000000000002c71      0xd37 x:/quartus/18.1/nios2eds/bin/gnu/h-x86_64-mingw32/bin/../lib/gcc/nios2-elf/5.3.0/../../../../../H-x86_64-mingw32/nios2-elf/lib\libc.a(lib_a-findfp.o)
 .debug_info    0x00000000000039a8      0xa34 x:/quartus/18.1/nios2eds/bin/gnu/h-x86_64-mingw32/bin/../lib/gcc/nios2-elf/5.3.0/../../../../../H-x86_64-mingw32/nios2-elf/lib\libc.a(lib_a-fopen.o)
 .debug_info    0x00000000000043dc      0x9a8 x:/quartus/18.1/nios2eds/bin/gnu/h-x86_64-mingw32/bin/../lib/gcc/nios2-elf/5.3.0/../../../../../H-x86_64-mingw32/nios2-elf/lib\libc.a(lib_a-fprintf.o)
 .debug_info    0x0000000000004d84      0x9c7 x:/quartus/18.1/nios2eds/bin/gnu/h-x86_64-mingw32/bin/../lib/gcc/nios2-elf/5.3.0/../../../../../H-x86_64-mingw32/nios2-elf/lib\libc.a(lib_a-fputc.o)
 .debug_info    0x000000000000574b      0xbf7 x:/quartus/18.1/nios2eds/bin/gnu/h-x86_64-mingw32/bin/../lib/gcc/nios2-elf/5.3.0/../../../../../H-x86_64-mingw32/nios2-elf/lib\libc.a(lib_a-freer.o)
 .debug_info    0x0000000000006342      0x9cd x:/quartus/18.1/nios2eds/bin/gnu/h-x86_64-mingw32/bin/../lib/gcc/nios2-elf/5.3.0/../../../../../H-x86_64-mingw32/nios2-elf/lib\libc.a(lib_a-fseek.o)
 .debug_info    0x0000000000006d0f      0xd60 x:/quartus/18.1/nios2eds/bin/gnu/h-x86_64-mingw32/bin/../lib/gcc/nios2-elf/5.3.0/../../../../../H-x86_64-mingw32/nios2-elf/lib\libc.a(lib_a-fseeko.o)
 .debug_info    0x0000000000007a6f      0xa5d x:/quartus/18.1/nios2eds/bin/gnu/h-x86_64-mingw32/bin/../lib/gcc/nios2-elf/5.3.0/../../../../../H-x86_64-mingw32/nios2-elf/lib\libc.a(lib_a-fstatr.o)
 .debug_info    0x00000000000084cc      0x9b0 x:/quartus/18.1/nios2eds/bin/gnu/h-x86_64-mingw32/bin/../lib/gcc/nios2-elf/5.3.0/../../../../../H-x86_64-mingw32/nios2-elf/lib\libc.a(lib_a-fwalk.o)
 .debug_info    0x0000000000008e7c      0x8a1 x:/quartus/18.1/nios2eds/bin/gnu/h-x86_64-mingw32/bin/../lib/gcc/nios2-elf/5.3.0/../../../../../H-x86_64-mingw32/nios2-elf/lib\libc.a(lib_a-impure.o)
 .debug_info    0x000000000000971d       0x8a x:/quartus/18.1/nios2eds/bin/gnu/h-x86_64-mingw32/bin/../lib/gcc/nios2-elf/5.3.0/../../../../../H-x86_64-mingw32/nios2-elf/lib\libc.a(lib_a-int_errno.o)
 .debug_info    0x00000000000097a7      0xad8 x:/quartus/18.1/nios2eds/bin/gnu/h-x86_64-mingw32/bin/../lib/gcc/nios2-elf/5.3.0/../../../../../H-x86_64-mingw32/nios2-elf/lib\libc.a(lib_a-makebuf.o)
 .debug_info    0x000000000000a27f      0xd57 x:/quartus/18.1/nios2eds/bin/gnu/h-x86_64-mingw32/bin/../lib/gcc/nios2-elf/5.3.0/../../../../../H-x86_64-mingw32/nios2-elf/lib\libc.a(lib_a-mallocr.o)
 .debug_info    0x000000000000afd6      0x121 x:/quartus/18.1/nios2eds/bin/gnu/h-x86_64-mingw32/bin/../lib/gcc/nios2-elf/5.3.0/../../../../../H-x86_64-mingw32/nios2-elf/lib\libc.a(lib_a-memset.o)
 .debug_info    0x000000000000b0f7      0x90c x:/quartus/18.1/nios2eds/bin/gnu/h-x86_64-mingw32/bin/../lib/gcc/nios2-elf/5.3.0/../../../../../H-x86_64-mingw32/nios2-elf/lib\libc.a(lib_a-openr.o)
 .debug_info    0x000000000000ba03      0x991 x:/quartus/18.1/nios2eds/bin/gnu/h-x86_64-mingw32/bin/../lib/gcc/nios2-elf/5.3.0/../../../../../H-x86_64-mingw32/nios2-elf/lib\libc.a(lib_a-printf.o)
 .debug_info    0x000000000000c394      0x9b4 x:/quartus/18.1/nios2eds/bin/gnu/h-x86_64-mingw32/bin/../lib/gcc/nios2-elf/5.3.0/../../../../../H-x86_64-mingw32/nios2-elf/lib\libc.a(lib_a-putc.o)
 .debug_info    0x000000000000cd48      0xa38 x:/quartus/18.1/nios2eds/bin/gnu/h-x86_64-mingw32/bin/../lib/gcc/nios2-elf/5.3.0/../../../../../H-x86_64-mingw32/nios2-elf/lib\libc.a(lib_a-puts.o)
 .debug_info    0x000000000000d780      0xa08 x:/quartus/18.1/nios2eds/bin/gnu/h-x86_64-mingw32/bin/../lib/gcc/nios2-elf/5.3.0/../../../../../H-x86_64-mingw32/nios2-elf/lib\libc.a(lib_a-refill.o)
 .debug_info    0x000000000000e188      0x963 x:/quartus/18.1/nios2eds/bin/gnu/h-x86_64-mingw32/bin/../lib/gcc/nios2-elf/5.3.0/../../../../../H-x86_64-mingw32/nios2-elf/lib\libc.a(lib_a-rewind.o)
 .debug_info    0x000000000000eaeb      0x900 x:/quartus/18.1/nios2eds/bin/gnu/h-x86_64-mingw32/bin/../lib/gcc/nios2-elf/5.3.0/../../../../../H-x86_64-mingw32/nios2-elf/lib\libc.a(lib_a-sbrkr.o)
 .debug_info    0x000000000000f3eb      0xb32 x:/quartus/18.1/nios2eds/bin/gnu/h-x86_64-mingw32/bin/../lib/gcc/nios2-elf/5.3.0/../../../../../H-x86_64-mingw32/nios2-elf/lib\libc.a(lib_a-stdio.o)
 .debug_info    0x000000000000ff1d       0xe2 x:/quartus/18.1/nios2eds/bin/gnu/h-x86_64-mingw32/bin/../lib/gcc/nios2-elf/5.3.0/../../../../../H-x86_64-mingw32/nios2-elf/lib\libc.a(lib_a-strlen.o)
 .debug_info    0x000000000000ffff     0x16b8 x:/quartus/18.1/nios2eds/bin/gnu/h-x86_64-mingw32/bin/../lib/gcc/nios2-elf/5.3.0/../../../../../H-x86_64-mingw32/nios2-elf/lib\libc.a(lib_a-vfprintf.o)
 .debug_info    0x00000000000116b7      0x9be x:/quartus/18.1/nios2eds/bin/gnu/h-x86_64-mingw32/bin/../lib/gcc/nios2-elf/5.3.0/../../../../../H-x86_64-mingw32/nios2-elf/lib\libc.a(lib_a-wbuf.o)
 .debug_info    0x0000000000012075      0x928 x:/quartus/18.1/nios2eds/bin/gnu/h-x86_64-mingw32/bin/../lib/gcc/nios2-elf/5.3.0/../../../../../H-x86_64-mingw32/nios2-elf/lib\libc.a(lib_a-writer.o)
 .debug_info    0x000000000001299d      0x936 x:/quartus/18.1/nios2eds/bin/gnu/h-x86_64-mingw32/bin/../lib/gcc/nios2-elf/5.3.0/../../../../../H-x86_64-mingw32/nios2-elf/lib\libc.a(lib_a-wsetup.o)
 .debug_info    0x00000000000132d3      0x8df x:/quartus/18.1/nios2eds/bin/gnu/h-x86_64-mingw32/bin/../lib/gcc/nios2-elf/5.3.0/../../../../../H-x86_64-mingw32/nios2-elf/lib\libc.a(closer.o)
 .debug_info    0x0000000000013bb2     0x1247 x:/quartus/18.1/nios2eds/bin/gnu/h-x86_64-mingw32/bin/../lib/gcc/nios2-elf/5.3.0/../../../../../H-x86_64-mingw32/nios2-elf/lib\libc.a(lib_a-dtoa.o)
 .debug_info    0x0000000000014df9      0x8e8 x:/quartus/18.1/nios2eds/bin/gnu/h-x86_64-mingw32/bin/../lib/gcc/nios2-elf/5.3.0/../../../../../H-x86_64-mingw32/nios2-elf/lib\libc.a(lib_a-flags.o)
 .debug_info    0x00000000000156e1      0xbb8 x:/quartus/18.1/nios2eds/bin/gnu/h-x86_64-mingw32/bin/../lib/gcc/nios2-elf/5.3.0/../../../../../H-x86_64-mingw32/nios2-elf/lib\libc.a(lib_a-fvwrite.o)
 .debug_info    0x0000000000016299      0x8df x:/quartus/18.1/nios2eds/bin/gnu/h-x86_64-mingw32/bin/../lib/gcc/nios2-elf/5.3.0/../../../../../H-x86_64-mingw32/nios2-elf/lib\libc.a(lib_a-isattyr.o)
 .debug_info    0x0000000000016b78      0xc25 x:/quartus/18.1/nios2eds/bin/gnu/h-x86_64-mingw32/bin/../lib/gcc/nios2-elf/5.3.0/../../../../../H-x86_64-mingw32/nios2-elf/lib\libc.a(lib_a-locale.o)
 .debug_info    0x000000000001779d      0x90b x:/quartus/18.1/nios2eds/bin/gnu/h-x86_64-mingw32/bin/../lib/gcc/nios2-elf/5.3.0/../../../../../H-x86_64-mingw32/nios2-elf/lib\libc.a(lib_a-lseekr.o)
 .debug_info    0x00000000000180a8      0x132 x:/quartus/18.1/nios2eds/bin/gnu/h-x86_64-mingw32/bin/../lib/gcc/nios2-elf/5.3.0/../../../../../H-x86_64-mingw32/nios2-elf/lib\libc.a(lib_a-memchr.o)
 .debug_info    0x00000000000181da      0x144 x:/quartus/18.1/nios2eds/bin/gnu/h-x86_64-mingw32/bin/../lib/gcc/nios2-elf/5.3.0/../../../../../H-x86_64-mingw32/nios2-elf/lib\libc.a(lib_a-memcpy.o)
 .debug_info    0x000000000001831e      0x13a x:/quartus/18.1/nios2eds/bin/gnu/h-x86_64-mingw32/bin/../lib/gcc/nios2-elf/5.3.0/../../../../../H-x86_64-mingw32/nios2-elf/lib\libc.a(lib_a-memmove.o)
 .debug_info    0x0000000000018458     0x16b7 x:/quartus/18.1/nios2eds/bin/gnu/h-x86_64-mingw32/bin/../lib/gcc/nios2-elf/5.3.0/../../../../../H-x86_64-mingw32/nios2-elf/lib\libc.a(lib_a-mprec.o)
 .debug_info    0x0000000000019b0f      0x921 x:/quartus/18.1/nios2eds/bin/gnu/h-x86_64-mingw32/bin/../lib/gcc/nios2-elf/5.3.0/../../../../../H-x86_64-mingw32/nios2-elf/lib\libc.a(lib_a-readr.o)
 .debug_info    0x000000000001a430      0xc6b x:/quartus/18.1/nios2eds/bin/gnu/h-x86_64-mingw32/bin/../lib/gcc/nios2-elf/5.3.0/../../../../../H-x86_64-mingw32/nios2-elf/lib\libc.a(lib_a-reallocr.o)
 .debug_info    0x000000000001b09b       0xdc x:/quartus/18.1/nios2eds/bin/gnu/h-x86_64-mingw32/bin/../lib/gcc/nios2-elf/5.3.0/../../../../../H-x86_64-mingw32/nios2-elf/lib\libc.a(lib_a-s_fpclassify.o)
 .debug_info    0x000000000001b177       0xe4 x:/quartus/18.1/nios2eds/bin/gnu/h-x86_64-mingw32/bin/../lib/gcc/nios2-elf/5.3.0/../../../../../H-x86_64-mingw32/nios2-elf/lib\libc.a(lib_a-strcmp.o)
 .debug_info    0x000000000001b25b     0x1535 x:/quartus/18.1/nios2eds/bin/gnu/h-x86_64-mingw32/bin/../lib/gcc/nios2-elf/5.3.0/../../../../../H-x86_64-mingw32/nios2-elf/lib\libc.a(lib_a-vfiprintf.o)
 .debug_info    0x000000000001c790      0x9d5 x:/quartus/18.1/nios2eds/bin/gnu/h-x86_64-mingw32/bin/../lib/gcc/nios2-elf/5.3.0/../../../../../H-x86_64-mingw32/nios2-elf/lib\libc.a(lib_a-callocr.o)
 .debug_info    0x000000000001d165      0xad4 x:/quartus/18.1/nios2eds/bin/gnu/h-x86_64-mingw32/bin/../lib/gcc/nios2-elf/5.3.0/../../../../../H-x86_64-mingw32/nios2-elf/lib\libc.a(lib_a-fputwc.o)
 .debug_info    0x000000000001dc39      0xa82 x:/quartus/18.1/nios2eds/bin/gnu/h-x86_64-mingw32/bin/../lib/gcc/nios2-elf/5.3.0/../../../../../H-x86_64-mingw32/nios2-elf/lib\libc.a(lib_a-wcrtomb.o)
 .debug_info    0x000000000001e6bb      0x9b1 x:/quartus/18.1/nios2eds/bin/gnu/h-x86_64-mingw32/bin/../lib/gcc/nios2-elf/5.3.0/../../../../../H-x86_64-mingw32/nios2-elf/lib\libc.a(lib_a-wctomb_r.o)
 .debug_info    0x000000000001f06c      0x70e x:/quartus/18.1/nios2eds/bin/gnu/h-x86_64-mingw32/bin/../lib/gcc/nios2-elf/5.3.0\libgcc.a(_udivdi3.o)
 .debug_info    0x000000000001f77a      0x765 x:/quartus/18.1/nios2eds/bin/gnu/h-x86_64-mingw32/bin/../lib/gcc/nios2-elf/5.3.0\libgcc.a(_umoddi3.o)
 .debug_info    0x000000000001fedf      0x4a2 x:/quartus/18.1/nios2eds/bin/gnu/h-x86_64-mingw32/bin/../lib/gcc/nios2-elf/5.3.0\libgcc.a(adddf3.o)
 .debug_info    0x0000000000020381      0x5c7 x:/quartus/18.1/nios2eds/bin/gnu/h-x86_64-mingw32/bin/../lib/gcc/nios2-elf/5.3.0\libgcc.a(divdf3.o)
 .debug_info    0x0000000000020948      0x1e2 x:/quartus/18.1/nios2eds/bin/gnu/h-x86_64-mingw32/bin/../lib/gcc/nios2-elf/5.3.0\libgcc.a(eqdf2.o)
 .debug_info    0x0000000000020b2a      0x202 x:/quartus/18.1/nios2eds/bin/gnu/h-x86_64-mingw32/bin/../lib/gcc/nios2-elf/5.3.0\libgcc.a(gedf2.o)
 .debug_info    0x0000000000020d2c      0x204 x:/quartus/18.1/nios2eds/bin/gnu/h-x86_64-mingw32/bin/../lib/gcc/nios2-elf/5.3.0\libgcc.a(ledf2.o)
 .debug_info    0x0000000000020f30      0x5f5 x:/quartus/18.1/nios2eds/bin/gnu/h-x86_64-mingw32/bin/../lib/gcc/nios2-elf/5.3.0\libgcc.a(muldf3.o)
 .debug_info    0x0000000000021525      0x4a2 x:/quartus/18.1/nios2eds/bin/gnu/h-x86_64-mingw32/bin/../lib/gcc/nios2-elf/5.3.0\libgcc.a(subdf3.o)
 .debug_info    0x00000000000219c7      0x1ae x:/quartus/18.1/nios2eds/bin/gnu/h-x86_64-mingw32/bin/../lib/gcc/nios2-elf/5.3.0\libgcc.a(fixdfsi.o)
 .debug_info    0x0000000000021b75      0x1bc x:/quartus/18.1/nios2eds/bin/gnu/h-x86_64-mingw32/bin/../lib/gcc/nios2-elf/5.3.0\libgcc.a(floatsidf.o)
 .debug_info    0x0000000000021d31      0x1b0 x:/quartus/18.1/nios2eds/bin/gnu/h-x86_64-mingw32/bin/../lib/gcc/nios2-elf/5.3.0\libgcc.a(floatunsidf.o)
 .debug_info    0x0000000000021ee1       0xb2 x:/quartus/18.1/nios2eds/bin/gnu/h-x86_64-mingw32/bin/../lib/gcc/nios2-elf/5.3.0\libgcc.a(_clz.o)
 .debug_info    0x0000000000021f93      0x124 x:/quartus/18.1/nios2eds/bin/gnu/h-x86_64-mingw32/bin/../lib/gcc/nios2-elf/5.3.0\libgcc.a(_clzsi2.o)
 .debug_info    0x00000000000220b7      0x321 C:/Users/test/Documents/EPFL/MA1/Embedded/Lab4/lab_4_V2/sw/lab4_cam1_bsp/\libhal_bsp.a(alt_close.o)
 .debug_info    0x00000000000223d8      0x49c C:/Users/test/Documents/EPFL/MA1/Embedded/Lab4/lab_4_V2/sw/lab4_cam1_bsp/\libhal_bsp.a(alt_dev.o)
 .debug_info    0x0000000000022874       0xa6 C:/Users/test/Documents/EPFL/MA1/Embedded/Lab4/lab_4_V2/sw/lab4_cam1_bsp/\libhal_bsp.a(alt_errno.o)
 .debug_info    0x000000000002291a      0x488 C:/Users/test/Documents/EPFL/MA1/Embedded/Lab4/lab_4_V2/sw/lab4_cam1_bsp/\libhal_bsp.a(alt_fstat.o)
 .debug_info    0x0000000000022da2      0x48b C:/Users/test/Documents/EPFL/MA1/Embedded/Lab4/lab_4_V2/sw/lab4_cam1_bsp/\libhal_bsp.a(alt_isatty.o)
 .debug_info    0x000000000002322d      0x145 C:/Users/test/Documents/EPFL/MA1/Embedded/Lab4/lab_4_V2/sw/lab4_cam1_bsp/\libhal_bsp.a(alt_load.o)
 .debug_info    0x0000000000023372      0x352 C:/Users/test/Documents/EPFL/MA1/Embedded/Lab4/lab_4_V2/sw/lab4_cam1_bsp/\libhal_bsp.a(alt_lseek.o)
 .debug_info    0x00000000000236c4      0x131 C:/Users/test/Documents/EPFL/MA1/Embedded/Lab4/lab_4_V2/sw/lab4_cam1_bsp/\libhal_bsp.a(alt_main.o)
 .debug_info    0x00000000000237f5      0x8b6 C:/Users/test/Documents/EPFL/MA1/Embedded/Lab4/lab_4_V2/sw/lab4_cam1_bsp/\libhal_bsp.a(alt_malloc_lock.o)
 .debug_info    0x00000000000240ab      0x3bb C:/Users/test/Documents/EPFL/MA1/Embedded/Lab4/lab_4_V2/sw/lab4_cam1_bsp/\libhal_bsp.a(alt_open.o)
 .debug_info    0x0000000000024466      0x4b0 C:/Users/test/Documents/EPFL/MA1/Embedded/Lab4/lab_4_V2/sw/lab4_cam1_bsp/\libhal_bsp.a(alt_read.o)
 .debug_info    0x0000000000024916      0x2b0 C:/Users/test/Documents/EPFL/MA1/Embedded/Lab4/lab_4_V2/sw/lab4_cam1_bsp/\libhal_bsp.a(alt_release_fd.o)
 .debug_info    0x0000000000024bc6      0x1ac C:/Users/test/Documents/EPFL/MA1/Embedded/Lab4/lab_4_V2/sw/lab4_cam1_bsp/\libhal_bsp.a(alt_sbrk.o)
 .debug_info    0x0000000000024d72       0xb0 C:/Users/test/Documents/EPFL/MA1/Embedded/Lab4/lab_4_V2/sw/lab4_cam1_bsp/\libhal_bsp.a(alt_usleep.o)
 .debug_info    0x0000000000024e22      0x4b7 C:/Users/test/Documents/EPFL/MA1/Embedded/Lab4/lab_4_V2/sw/lab4_cam1_bsp/\libhal_bsp.a(alt_write.o)
 .debug_info    0x00000000000252d9      0x4f8 C:/Users/test/Documents/EPFL/MA1/Embedded/Lab4/lab_4_V2/sw/lab4_cam1_bsp/\libhal_bsp.a(alt_sys_init.o)
 .debug_info    0x00000000000257d1      0x52e C:/Users/test/Documents/EPFL/MA1/Embedded/Lab4/lab_4_V2/sw/lab4_cam1_bsp/\libhal_bsp.a(altera_avalon_jtag_uart_fd.o)
 .debug_info    0x0000000000025cff      0x3a0 C:/Users/test/Documents/EPFL/MA1/Embedded/Lab4/lab_4_V2/sw/lab4_cam1_bsp/\libhal_bsp.a(altera_avalon_jtag_uart_init.o)
 .debug_info    0x000000000002609f      0x280 C:/Users/test/Documents/EPFL/MA1/Embedded/Lab4/lab_4_V2/sw/lab4_cam1_bsp/\libhal_bsp.a(altera_avalon_jtag_uart_ioctl.o)
 .debug_info    0x000000000002631f      0x345 C:/Users/test/Documents/EPFL/MA1/Embedded/Lab4/lab_4_V2/sw/lab4_cam1_bsp/\libhal_bsp.a(altera_avalon_jtag_uart_read.o)
 .debug_info    0x0000000000026664      0x340 C:/Users/test/Documents/EPFL/MA1/Embedded/Lab4/lab_4_V2/sw/lab4_cam1_bsp/\libhal_bsp.a(altera_avalon_jtag_uart_write.o)
 .debug_info    0x00000000000269a4      0x9c4 C:/Users/test/Documents/EPFL/MA1/Embedded/Lab4/lab_4_V2/sw/lab4_cam1_bsp/\libhal_bsp.a(altera_hostfs.o)
 .debug_info    0x0000000000027368      0x2cc C:/Users/test/Documents/EPFL/MA1/Embedded/Lab4/lab_4_V2/sw/lab4_cam1_bsp/\libhal_bsp.a(alt_alarm_start.o)
 .debug_info    0x0000000000027634       0xd7 C:/Users/test/Documents/EPFL/MA1/Embedded/Lab4/lab_4_V2/sw/lab4_cam1_bsp/\libhal_bsp.a(alt_busy_sleep.o)
 .debug_info    0x000000000002770b       0xa5 C:/Users/test/Documents/EPFL/MA1/Embedded/Lab4/lab_4_V2/sw/lab4_cam1_bsp/\libhal_bsp.a(alt_dcache_flush_all.o)
 .debug_info    0x00000000000277b0      0x1a9 C:/Users/test/Documents/EPFL/MA1/Embedded/Lab4/lab_4_V2/sw/lab4_cam1_bsp/\libhal_bsp.a(alt_dev_llist_insert.o)
 .debug_info    0x0000000000027959       0x83 C:/Users/test/Documents/EPFL/MA1/Embedded/Lab4/lab_4_V2/sw/lab4_cam1_bsp/\libhal_bsp.a(alt_do_ctors.o)
 .debug_info    0x00000000000279dc       0x83 C:/Users/test/Documents/EPFL/MA1/Embedded/Lab4/lab_4_V2/sw/lab4_cam1_bsp/\libhal_bsp.a(alt_do_dtors.o)
 .debug_info    0x0000000000027a5f      0x2e9 C:/Users/test/Documents/EPFL/MA1/Embedded/Lab4/lab_4_V2/sw/lab4_cam1_bsp/\libhal_bsp.a(alt_find_dev.o)
 .debug_info    0x0000000000027d48      0x2e6 C:/Users/test/Documents/EPFL/MA1/Embedded/Lab4/lab_4_V2/sw/lab4_cam1_bsp/\libhal_bsp.a(alt_find_file.o)
 .debug_info    0x000000000002802e      0x302 C:/Users/test/Documents/EPFL/MA1/Embedded/Lab4/lab_4_V2/sw/lab4_cam1_bsp/\libhal_bsp.a(alt_fs_reg.o)
 .debug_info    0x0000000000028330      0x310 C:/Users/test/Documents/EPFL/MA1/Embedded/Lab4/lab_4_V2/sw/lab4_cam1_bsp/\libhal_bsp.a(alt_get_fd.o)
 .debug_info    0x0000000000028640       0x92 C:/Users/test/Documents/EPFL/MA1/Embedded/Lab4/lab_4_V2/sw/lab4_cam1_bsp/\libhal_bsp.a(alt_icache_flush_all.o)
 .debug_info    0x00000000000286d2      0x350 C:/Users/test/Documents/EPFL/MA1/Embedded/Lab4/lab_4_V2/sw/lab4_cam1_bsp/\libhal_bsp.a(alt_iic.o)
 .debug_info    0x0000000000028a22      0x1ef C:/Users/test/Documents/EPFL/MA1/Embedded/Lab4/lab_4_V2/sw/lab4_cam1_bsp/\libhal_bsp.a(alt_iic_isr_register.o)
 .debug_info    0x0000000000028c11      0x4a5 C:/Users/test/Documents/EPFL/MA1/Embedded/Lab4/lab_4_V2/sw/lab4_cam1_bsp/\libhal_bsp.a(alt_io_redirect.o)
 .debug_info    0x00000000000290b6       0x86 C:/Users/test/Documents/EPFL/MA1/Embedded/Lab4/lab_4_V2/sw/lab4_cam1_bsp/\libhal_bsp.a(alt_irq_entry.o)
 .debug_info    0x000000000002913c      0x187 C:/Users/test/Documents/EPFL/MA1/Embedded/Lab4/lab_4_V2/sw/lab4_cam1_bsp/\libhal_bsp.a(alt_irq_handler.o)
 .debug_info    0x00000000000292c3       0x88 C:/Users/test/Documents/EPFL/MA1/Embedded/Lab4/lab_4_V2/sw/lab4_cam1_bsp/\libhal_bsp.a(alt_irq_vars.o)
 .debug_info    0x000000000002934b      0x299 C:/Users/test/Documents/EPFL/MA1/Embedded/Lab4/lab_4_V2/sw/lab4_cam1_bsp/\libhal_bsp.a(alt_tick.o)
 .debug_info    0x00000000000295e4       0x92 C:/Users/test/Documents/EPFL/MA1/Embedded/Lab4/lab_4_V2/sw/lab4_cam1_bsp/\libhal_bsp.a(altera_nios2_gen2_irq.o)
 .debug_info    0x0000000000029676       0x8c C:/Users/test/Documents/EPFL/MA1/Embedded/Lab4/lab_4_V2/sw/lab4_cam1_bsp/\libhal_bsp.a(alt_exception_entry.o)
 .debug_info    0x0000000000029702       0xdc C:/Users/test/Documents/EPFL/MA1/Embedded/Lab4/lab_4_V2/sw/lab4_cam1_bsp/\libhal_bsp.a(alt_icache_flush.o)
 .debug_info    0x00000000000297de      0x1e7 C:/Users/test/Documents/EPFL/MA1/Embedded/Lab4/lab_4_V2/sw/lab4_cam1_bsp/\libhal_bsp.a(alt_instruction_exception_entry.o)
 .debug_info    0x00000000000299c5       0xfe x:/quartus/18.1/nios2eds/bin/gnu/h-x86_64-mingw32/bin/../lib/gcc/nios2-elf/5.3.0/../../../../../H-x86_64-mingw32/nios2-elf/lib\libc.a(lib_a-atexit.o)
 .debug_info    0x0000000000029ac3      0x8e4 x:/quartus/18.1/nios2eds/bin/gnu/h-x86_64-mingw32/bin/../lib/gcc/nios2-elf/5.3.0/../../../../../H-x86_64-mingw32/nios2-elf/lib\libc.a(lib_a-exit.o)
 .debug_info    0x000000000002a3a7      0x11a x:/quartus/18.1/nios2eds/bin/gnu/h-x86_64-mingw32/bin/../lib/gcc/nios2-elf/5.3.0/../../../../../H-x86_64-mingw32/nios2-elf/lib\libc.a(lib_a-memcmp.o)
 .debug_info    0x000000000002a4c1      0x934 x:/quartus/18.1/nios2eds/bin/gnu/h-x86_64-mingw32/bin/../lib/gcc/nios2-elf/5.3.0/../../../../../H-x86_64-mingw32/nios2-elf/lib\libc.a(lib_a-__atexit.o)
 .debug_info    0x000000000002adf5      0x965 x:/quartus/18.1/nios2eds/bin/gnu/h-x86_64-mingw32/bin/../lib/gcc/nios2-elf/5.3.0/../../../../../H-x86_64-mingw32/nios2-elf/lib\libc.a(lib_a-__call_atexit.o)
 .debug_info    0x000000000002b75a       0xec C:/Users/test/Documents/EPFL/MA1/Embedded/Lab4/lab_4_V2/sw/lab4_cam1_bsp/\libhal_bsp.a(alt_exit.o)

.debug_abbrev   0x0000000000000000     0xad0d
 *(.debug_abbrev)
 .debug_abbrev  0x0000000000000000       0x12 C:/Users/test/Documents/EPFL/MA1/Embedded/Lab4/lab_4_V2/sw/lab4_cam1_bsp//obj/HAL/src/crt0.o
 .debug_abbrev  0x0000000000000012      0x1a0 obj/default/cmos_sensor_output_generator/cmos_sensor_output_generator.o
 .debug_abbrev  0x00000000000001b2      0x1fd obj/default/hello_world.o
 .debug_abbrev  0x00000000000003af      0x19e obj/default/i2c/i2c.o
 .debug_abbrev  0x000000000000054d      0x10e x:/quartus/18.1/nios2eds/bin/gnu/h-x86_64-mingw32/bin/../lib/gcc/nios2-elf/5.3.0\libgcc.a(lib2-divmod.o)
 .debug_abbrev  0x000000000000065b      0x2a2 x:/quartus/18.1/nios2eds/bin/gnu/h-x86_64-mingw32/bin/../lib/gcc/nios2-elf/5.3.0/../../../../../H-x86_64-mingw32/nios2-elf/lib\libc.a(lib_a-fclose.o)
 .debug_abbrev  0x00000000000008fd      0x2a0 x:/quartus/18.1/nios2eds/bin/gnu/h-x86_64-mingw32/bin/../lib/gcc/nios2-elf/5.3.0/../../../../../H-x86_64-mingw32/nios2-elf/lib\libc.a(lib_a-fflush.o)
 .debug_abbrev  0x0000000000000b9d      0x391 x:/quartus/18.1/nios2eds/bin/gnu/h-x86_64-mingw32/bin/../lib/gcc/nios2-elf/5.3.0/../../../../../H-x86_64-mingw32/nios2-elf/lib\libc.a(lib_a-findfp.o)
 .debug_abbrev  0x0000000000000f2e      0x251 x:/quartus/18.1/nios2eds/bin/gnu/h-x86_64-mingw32/bin/../lib/gcc/nios2-elf/5.3.0/../../../../../H-x86_64-mingw32/nios2-elf/lib\libc.a(lib_a-fopen.o)
 .debug_abbrev  0x000000000000117f      0x215 x:/quartus/18.1/nios2eds/bin/gnu/h-x86_64-mingw32/bin/../lib/gcc/nios2-elf/5.3.0/../../../../../H-x86_64-mingw32/nios2-elf/lib\libc.a(lib_a-fprintf.o)
 .debug_abbrev  0x0000000000001394      0x248 x:/quartus/18.1/nios2eds/bin/gnu/h-x86_64-mingw32/bin/../lib/gcc/nios2-elf/5.3.0/../../../../../H-x86_64-mingw32/nios2-elf/lib\libc.a(lib_a-fputc.o)
 .debug_abbrev  0x00000000000015dc      0x264 x:/quartus/18.1/nios2eds/bin/gnu/h-x86_64-mingw32/bin/../lib/gcc/nios2-elf/5.3.0/../../../../../H-x86_64-mingw32/nios2-elf/lib\libc.a(lib_a-freer.o)
 .debug_abbrev  0x0000000000001840      0x249 x:/quartus/18.1/nios2eds/bin/gnu/h-x86_64-mingw32/bin/../lib/gcc/nios2-elf/5.3.0/../../../../../H-x86_64-mingw32/nios2-elf/lib\libc.a(lib_a-fseek.o)
 .debug_abbrev  0x0000000000001a89      0x2ac x:/quartus/18.1/nios2eds/bin/gnu/h-x86_64-mingw32/bin/../lib/gcc/nios2-elf/5.3.0/../../../../../H-x86_64-mingw32/nios2-elf/lib\libc.a(lib_a-fseeko.o)
 .debug_abbrev  0x0000000000001d35      0x1f5 x:/quartus/18.1/nios2eds/bin/gnu/h-x86_64-mingw32/bin/../lib/gcc/nios2-elf/5.3.0/../../../../../H-x86_64-mingw32/nios2-elf/lib\libc.a(lib_a-fstatr.o)
 .debug_abbrev  0x0000000000001f2a      0x1d1 x:/quartus/18.1/nios2eds/bin/gnu/h-x86_64-mingw32/bin/../lib/gcc/nios2-elf/5.3.0/../../../../../H-x86_64-mingw32/nios2-elf/lib\libc.a(lib_a-fwalk.o)
 .debug_abbrev  0x00000000000020fb      0x18f x:/quartus/18.1/nios2eds/bin/gnu/h-x86_64-mingw32/bin/../lib/gcc/nios2-elf/5.3.0/../../../../../H-x86_64-mingw32/nios2-elf/lib\libc.a(lib_a-impure.o)
 .debug_abbrev  0x000000000000228a       0x37 x:/quartus/18.1/nios2eds/bin/gnu/h-x86_64-mingw32/bin/../lib/gcc/nios2-elf/5.3.0/../../../../../H-x86_64-mingw32/nios2-elf/lib\libc.a(lib_a-int_errno.o)
 .debug_abbrev  0x00000000000022c1      0x20f x:/quartus/18.1/nios2eds/bin/gnu/h-x86_64-mingw32/bin/../lib/gcc/nios2-elf/5.3.0/../../../../../H-x86_64-mingw32/nios2-elf/lib\libc.a(lib_a-makebuf.o)
 .debug_abbrev  0x00000000000024d0      0x29d x:/quartus/18.1/nios2eds/bin/gnu/h-x86_64-mingw32/bin/../lib/gcc/nios2-elf/5.3.0/../../../../../H-x86_64-mingw32/nios2-elf/lib\libc.a(lib_a-mallocr.o)
 .debug_abbrev  0x000000000000276d       0xae x:/quartus/18.1/nios2eds/bin/gnu/h-x86_64-mingw32/bin/../lib/gcc/nios2-elf/5.3.0/../../../../../H-x86_64-mingw32/nios2-elf/lib\libc.a(lib_a-memset.o)
 .debug_abbrev  0x000000000000281b      0x1f5 x:/quartus/18.1/nios2eds/bin/gnu/h-x86_64-mingw32/bin/../lib/gcc/nios2-elf/5.3.0/../../../../../H-x86_64-mingw32/nios2-elf/lib\libc.a(lib_a-openr.o)
 .debug_abbrev  0x0000000000002a10      0x233 x:/quartus/18.1/nios2eds/bin/gnu/h-x86_64-mingw32/bin/../lib/gcc/nios2-elf/5.3.0/../../../../../H-x86_64-mingw32/nios2-elf/lib\libc.a(lib_a-printf.o)
 .debug_abbrev  0x0000000000002c43      0x243 x:/quartus/18.1/nios2eds/bin/gnu/h-x86_64-mingw32/bin/../lib/gcc/nios2-elf/5.3.0/../../../../../H-x86_64-mingw32/nios2-elf/lib\libc.a(lib_a-putc.o)
 .debug_abbrev  0x0000000000002e86      0x249 x:/quartus/18.1/nios2eds/bin/gnu/h-x86_64-mingw32/bin/../lib/gcc/nios2-elf/5.3.0/../../../../../H-x86_64-mingw32/nios2-elf/lib\libc.a(lib_a-puts.o)
 .debug_abbrev  0x00000000000030cf      0x256 x:/quartus/18.1/nios2eds/bin/gnu/h-x86_64-mingw32/bin/../lib/gcc/nios2-elf/5.3.0/../../../../../H-x86_64-mingw32/nios2-elf/lib\libc.a(lib_a-refill.o)
 .debug_abbrev  0x0000000000003325      0x226 x:/quartus/18.1/nios2eds/bin/gnu/h-x86_64-mingw32/bin/../lib/gcc/nios2-elf/5.3.0/../../../../../H-x86_64-mingw32/nios2-elf/lib\libc.a(lib_a-rewind.o)
 .debug_abbrev  0x000000000000354b      0x20a x:/quartus/18.1/nios2eds/bin/gnu/h-x86_64-mingw32/bin/../lib/gcc/nios2-elf/5.3.0/../../../../../H-x86_64-mingw32/nios2-elf/lib\libc.a(lib_a-sbrkr.o)
 .debug_abbrev  0x0000000000003755      0x239 x:/quartus/18.1/nios2eds/bin/gnu/h-x86_64-mingw32/bin/../lib/gcc/nios2-elf/5.3.0/../../../../../H-x86_64-mingw32/nios2-elf/lib\libc.a(lib_a-stdio.o)
 .debug_abbrev  0x000000000000398e       0x90 x:/quartus/18.1/nios2eds/bin/gnu/h-x86_64-mingw32/bin/../lib/gcc/nios2-elf/5.3.0/../../../../../H-x86_64-mingw32/nios2-elf/lib\libc.a(lib_a-strlen.o)
 .debug_abbrev  0x0000000000003a1e      0x3bf x:/quartus/18.1/nios2eds/bin/gnu/h-x86_64-mingw32/bin/../lib/gcc/nios2-elf/5.3.0/../../../../../H-x86_64-mingw32/nios2-elf/lib\libc.a(lib_a-vfprintf.o)
 .debug_abbrev  0x0000000000003ddd      0x251 x:/quartus/18.1/nios2eds/bin/gnu/h-x86_64-mingw32/bin/../lib/gcc/nios2-elf/5.3.0/../../../../../H-x86_64-mingw32/nios2-elf/lib\libc.a(lib_a-wbuf.o)
 .debug_abbrev  0x000000000000402e      0x1eb x:/quartus/18.1/nios2eds/bin/gnu/h-x86_64-mingw32/bin/../lib/gcc/nios2-elf/5.3.0/../../../../../H-x86_64-mingw32/nios2-elf/lib\libc.a(lib_a-writer.o)
 .debug_abbrev  0x0000000000004219      0x218 x:/quartus/18.1/nios2eds/bin/gnu/h-x86_64-mingw32/bin/../lib/gcc/nios2-elf/5.3.0/../../../../../H-x86_64-mingw32/nios2-elf/lib\libc.a(lib_a-wsetup.o)
 .debug_abbrev  0x0000000000004431      0x1e6 x:/quartus/18.1/nios2eds/bin/gnu/h-x86_64-mingw32/bin/../lib/gcc/nios2-elf/5.3.0/../../../../../H-x86_64-mingw32/nios2-elf/lib\libc.a(closer.o)
 .debug_abbrev  0x0000000000004617      0x2b8 x:/quartus/18.1/nios2eds/bin/gnu/h-x86_64-mingw32/bin/../lib/gcc/nios2-elf/5.3.0/../../../../../H-x86_64-mingw32/nios2-elf/lib\libc.a(lib_a-dtoa.o)
 .debug_abbrev  0x00000000000048cf      0x1cb x:/quartus/18.1/nios2eds/bin/gnu/h-x86_64-mingw32/bin/../lib/gcc/nios2-elf/5.3.0/../../../../../H-x86_64-mingw32/nios2-elf/lib\libc.a(lib_a-flags.o)
 .debug_abbrev  0x0000000000004a9a      0x228 x:/quartus/18.1/nios2eds/bin/gnu/h-x86_64-mingw32/bin/../lib/gcc/nios2-elf/5.3.0/../../../../../H-x86_64-mingw32/nios2-elf/lib\libc.a(lib_a-fvwrite.o)
 .debug_abbrev  0x0000000000004cc2      0x1e6 x:/quartus/18.1/nios2eds/bin/gnu/h-x86_64-mingw32/bin/../lib/gcc/nios2-elf/5.3.0/../../../../../H-x86_64-mingw32/nios2-elf/lib\libc.a(lib_a-isattyr.o)
 .debug_abbrev  0x0000000000004ea8      0x2c0 x:/quartus/18.1/nios2eds/bin/gnu/h-x86_64-mingw32/bin/../lib/gcc/nios2-elf/5.3.0/../../../../../H-x86_64-mingw32/nios2-elf/lib\libc.a(lib_a-locale.o)
 .debug_abbrev  0x0000000000005168      0x1f5 x:/quartus/18.1/nios2eds/bin/gnu/h-x86_64-mingw32/bin/../lib/gcc/nios2-elf/5.3.0/../../../../../H-x86_64-mingw32/nios2-elf/lib\libc.a(lib_a-lseekr.o)
 .debug_abbrev  0x000000000000535d       0xab x:/quartus/18.1/nios2eds/bin/gnu/h-x86_64-mingw32/bin/../lib/gcc/nios2-elf/5.3.0/../../../../../H-x86_64-mingw32/nios2-elf/lib\libc.a(lib_a-memchr.o)
 .debug_abbrev  0x0000000000005408       0xa3 x:/quartus/18.1/nios2eds/bin/gnu/h-x86_64-mingw32/bin/../lib/gcc/nios2-elf/5.3.0/../../../../../H-x86_64-mingw32/nios2-elf/lib\libc.a(lib_a-memcpy.o)
 .debug_abbrev  0x00000000000054ab       0x9c x:/quartus/18.1/nios2eds/bin/gnu/h-x86_64-mingw32/bin/../lib/gcc/nios2-elf/5.3.0/../../../../../H-x86_64-mingw32/nios2-elf/lib\libc.a(lib_a-memmove.o)
 .debug_abbrev  0x0000000000005547      0x3d7 x:/quartus/18.1/nios2eds/bin/gnu/h-x86_64-mingw32/bin/../lib/gcc/nios2-elf/5.3.0/../../../../../H-x86_64-mingw32/nios2-elf/lib\libc.a(lib_a-mprec.o)
 .debug_abbrev  0x000000000000591e      0x1e6 x:/quartus/18.1/nios2eds/bin/gnu/h-x86_64-mingw32/bin/../lib/gcc/nios2-elf/5.3.0/../../../../../H-x86_64-mingw32/nios2-elf/lib\libc.a(lib_a-readr.o)
 .debug_abbrev  0x0000000000005b04      0x231 x:/quartus/18.1/nios2eds/bin/gnu/h-x86_64-mingw32/bin/../lib/gcc/nios2-elf/5.3.0/../../../../../H-x86_64-mingw32/nios2-elf/lib\libc.a(lib_a-reallocr.o)
 .debug_abbrev  0x0000000000005d35       0x7e x:/quartus/18.1/nios2eds/bin/gnu/h-x86_64-mingw32/bin/../lib/gcc/nios2-elf/5.3.0/../../../../../H-x86_64-mingw32/nios2-elf/lib\libc.a(lib_a-s_fpclassify.o)
 .debug_abbrev  0x0000000000005db3       0x74 x:/quartus/18.1/nios2eds/bin/gnu/h-x86_64-mingw32/bin/../lib/gcc/nios2-elf/5.3.0/../../../../../H-x86_64-mingw32/nios2-elf/lib\libc.a(lib_a-strcmp.o)
 .debug_abbrev  0x0000000000005e27      0x3ce x:/quartus/18.1/nios2eds/bin/gnu/h-x86_64-mingw32/bin/../lib/gcc/nios2-elf/5.3.0/../../../../../H-x86_64-mingw32/nios2-elf/lib\libc.a(lib_a-vfiprintf.o)
 .debug_abbrev  0x00000000000061f5      0x209 x:/quartus/18.1/nios2eds/bin/gnu/h-x86_64-mingw32/bin/../lib/gcc/nios2-elf/5.3.0/../../../../../H-x86_64-mingw32/nios2-elf/lib\libc.a(lib_a-callocr.o)
 .debug_abbrev  0x00000000000063fe      0x2b9 x:/quartus/18.1/nios2eds/bin/gnu/h-x86_64-mingw32/bin/../lib/gcc/nios2-elf/5.3.0/../../../../../H-x86_64-mingw32/nios2-elf/lib\libc.a(lib_a-fputwc.o)
 .debug_abbrev  0x00000000000066b7      0x230 x:/quartus/18.1/nios2eds/bin/gnu/h-x86_64-mingw32/bin/../lib/gcc/nios2-elf/5.3.0/../../../../../H-x86_64-mingw32/nios2-elf/lib\libc.a(lib_a-wcrtomb.o)
 .debug_abbrev  0x00000000000068e7      0x21f x:/quartus/18.1/nios2eds/bin/gnu/h-x86_64-mingw32/bin/../lib/gcc/nios2-elf/5.3.0/../../../../../H-x86_64-mingw32/nios2-elf/lib\libc.a(lib_a-wctomb_r.o)
 .debug_abbrev  0x0000000000006b06      0x167 x:/quartus/18.1/nios2eds/bin/gnu/h-x86_64-mingw32/bin/../lib/gcc/nios2-elf/5.3.0\libgcc.a(_udivdi3.o)
 .debug_abbrev  0x0000000000006c6d      0x18a x:/quartus/18.1/nios2eds/bin/gnu/h-x86_64-mingw32/bin/../lib/gcc/nios2-elf/5.3.0\libgcc.a(_umoddi3.o)
 .debug_abbrev  0x0000000000006df7      0x13a x:/quartus/18.1/nios2eds/bin/gnu/h-x86_64-mingw32/bin/../lib/gcc/nios2-elf/5.3.0\libgcc.a(adddf3.o)
 .debug_abbrev  0x0000000000006f31      0x12d x:/quartus/18.1/nios2eds/bin/gnu/h-x86_64-mingw32/bin/../lib/gcc/nios2-elf/5.3.0\libgcc.a(divdf3.o)
 .debug_abbrev  0x000000000000705e      0x128 x:/quartus/18.1/nios2eds/bin/gnu/h-x86_64-mingw32/bin/../lib/gcc/nios2-elf/5.3.0\libgcc.a(eqdf2.o)
 .debug_abbrev  0x0000000000007186      0x137 x:/quartus/18.1/nios2eds/bin/gnu/h-x86_64-mingw32/bin/../lib/gcc/nios2-elf/5.3.0\libgcc.a(gedf2.o)
 .debug_abbrev  0x00000000000072bd      0x137 x:/quartus/18.1/nios2eds/bin/gnu/h-x86_64-mingw32/bin/../lib/gcc/nios2-elf/5.3.0\libgcc.a(ledf2.o)
 .debug_abbrev  0x00000000000073f4      0x13f x:/quartus/18.1/nios2eds/bin/gnu/h-x86_64-mingw32/bin/../lib/gcc/nios2-elf/5.3.0\libgcc.a(muldf3.o)
 .debug_abbrev  0x0000000000007533      0x133 x:/quartus/18.1/nios2eds/bin/gnu/h-x86_64-mingw32/bin/../lib/gcc/nios2-elf/5.3.0\libgcc.a(subdf3.o)
 .debug_abbrev  0x0000000000007666      0x135 x:/quartus/18.1/nios2eds/bin/gnu/h-x86_64-mingw32/bin/../lib/gcc/nios2-elf/5.3.0\libgcc.a(fixdfsi.o)
 .debug_abbrev  0x000000000000779b      0x124 x:/quartus/18.1/nios2eds/bin/gnu/h-x86_64-mingw32/bin/../lib/gcc/nios2-elf/5.3.0\libgcc.a(floatsidf.o)
 .debug_abbrev  0x00000000000078bf      0x124 x:/quartus/18.1/nios2eds/bin/gnu/h-x86_64-mingw32/bin/../lib/gcc/nios2-elf/5.3.0\libgcc.a(floatunsidf.o)
 .debug_abbrev  0x00000000000079e3       0x5d x:/quartus/18.1/nios2eds/bin/gnu/h-x86_64-mingw32/bin/../lib/gcc/nios2-elf/5.3.0\libgcc.a(_clz.o)
 .debug_abbrev  0x0000000000007a40       0xbe x:/quartus/18.1/nios2eds/bin/gnu/h-x86_64-mingw32/bin/../lib/gcc/nios2-elf/5.3.0\libgcc.a(_clzsi2.o)
 .debug_abbrev  0x0000000000007afe      0x11f C:/Users/test/Documents/EPFL/MA1/Embedded/Lab4/lab_4_V2/sw/lab4_cam1_bsp/\libhal_bsp.a(alt_close.o)
 .debug_abbrev  0x0000000000007c1d       0xd9 C:/Users/test/Documents/EPFL/MA1/Embedded/Lab4/lab_4_V2/sw/lab4_cam1_bsp/\libhal_bsp.a(alt_dev.o)
 .debug_abbrev  0x0000000000007cf6       0x5a C:/Users/test/Documents/EPFL/MA1/Embedded/Lab4/lab_4_V2/sw/lab4_cam1_bsp/\libhal_bsp.a(alt_errno.o)
 .debug_abbrev  0x0000000000007d50      0x11f C:/Users/test/Documents/EPFL/MA1/Embedded/Lab4/lab_4_V2/sw/lab4_cam1_bsp/\libhal_bsp.a(alt_fstat.o)
 .debug_abbrev  0x0000000000007e6f      0x11f C:/Users/test/Documents/EPFL/MA1/Embedded/Lab4/lab_4_V2/sw/lab4_cam1_bsp/\libhal_bsp.a(alt_isatty.o)
 .debug_abbrev  0x0000000000007f8e       0x9f C:/Users/test/Documents/EPFL/MA1/Embedded/Lab4/lab_4_V2/sw/lab4_cam1_bsp/\libhal_bsp.a(alt_load.o)
 .debug_abbrev  0x000000000000802d      0x11f C:/Users/test/Documents/EPFL/MA1/Embedded/Lab4/lab_4_V2/sw/lab4_cam1_bsp/\libhal_bsp.a(alt_lseek.o)
 .debug_abbrev  0x000000000000814c       0xba C:/Users/test/Documents/EPFL/MA1/Embedded/Lab4/lab_4_V2/sw/lab4_cam1_bsp/\libhal_bsp.a(alt_main.o)
 .debug_abbrev  0x0000000000008206      0x1b4 C:/Users/test/Documents/EPFL/MA1/Embedded/Lab4/lab_4_V2/sw/lab4_cam1_bsp/\libhal_bsp.a(alt_malloc_lock.o)
 .debug_abbrev  0x00000000000083ba      0x148 C:/Users/test/Documents/EPFL/MA1/Embedded/Lab4/lab_4_V2/sw/lab4_cam1_bsp/\libhal_bsp.a(alt_open.o)
 .debug_abbrev  0x0000000000008502      0x12e C:/Users/test/Documents/EPFL/MA1/Embedded/Lab4/lab_4_V2/sw/lab4_cam1_bsp/\libhal_bsp.a(alt_read.o)
 .debug_abbrev  0x0000000000008630       0xde C:/Users/test/Documents/EPFL/MA1/Embedded/Lab4/lab_4_V2/sw/lab4_cam1_bsp/\libhal_bsp.a(alt_release_fd.o)
 .debug_abbrev  0x000000000000870e      0x112 C:/Users/test/Documents/EPFL/MA1/Embedded/Lab4/lab_4_V2/sw/lab4_cam1_bsp/\libhal_bsp.a(alt_sbrk.o)
 .debug_abbrev  0x0000000000008820       0x60 C:/Users/test/Documents/EPFL/MA1/Embedded/Lab4/lab_4_V2/sw/lab4_cam1_bsp/\libhal_bsp.a(alt_usleep.o)
 .debug_abbrev  0x0000000000008880      0x133 C:/Users/test/Documents/EPFL/MA1/Embedded/Lab4/lab_4_V2/sw/lab4_cam1_bsp/\libhal_bsp.a(alt_write.o)
 .debug_abbrev  0x00000000000089b3      0x187 C:/Users/test/Documents/EPFL/MA1/Embedded/Lab4/lab_4_V2/sw/lab4_cam1_bsp/\libhal_bsp.a(alt_sys_init.o)
 .debug_abbrev  0x0000000000008b3a      0x127 C:/Users/test/Documents/EPFL/MA1/Embedded/Lab4/lab_4_V2/sw/lab4_cam1_bsp/\libhal_bsp.a(altera_avalon_jtag_uart_fd.o)
 .debug_abbrev  0x0000000000008c61      0x19e C:/Users/test/Documents/EPFL/MA1/Embedded/Lab4/lab_4_V2/sw/lab4_cam1_bsp/\libhal_bsp.a(altera_avalon_jtag_uart_init.o)
 .debug_abbrev  0x0000000000008dff      0x111 C:/Users/test/Documents/EPFL/MA1/Embedded/Lab4/lab_4_V2/sw/lab4_cam1_bsp/\libhal_bsp.a(altera_avalon_jtag_uart_ioctl.o)
 .debug_abbrev  0x0000000000008f10      0x1aa C:/Users/test/Documents/EPFL/MA1/Embedded/Lab4/lab_4_V2/sw/lab4_cam1_bsp/\libhal_bsp.a(altera_avalon_jtag_uart_read.o)
 .debug_abbrev  0x00000000000090ba      0x1a8 C:/Users/test/Documents/EPFL/MA1/Embedded/Lab4/lab_4_V2/sw/lab4_cam1_bsp/\libhal_bsp.a(altera_avalon_jtag_uart_write.o)
 .debug_abbrev  0x0000000000009262      0x1c7 C:/Users/test/Documents/EPFL/MA1/Embedded/Lab4/lab_4_V2/sw/lab4_cam1_bsp/\libhal_bsp.a(altera_hostfs.o)
 .debug_abbrev  0x0000000000009429      0x162 C:/Users/test/Documents/EPFL/MA1/Embedded/Lab4/lab_4_V2/sw/lab4_cam1_bsp/\libhal_bsp.a(alt_alarm_start.o)
 .debug_abbrev  0x000000000000958b       0x7e C:/Users/test/Documents/EPFL/MA1/Embedded/Lab4/lab_4_V2/sw/lab4_cam1_bsp/\libhal_bsp.a(alt_busy_sleep.o)
 .debug_abbrev  0x0000000000009609       0x5a C:/Users/test/Documents/EPFL/MA1/Embedded/Lab4/lab_4_V2/sw/lab4_cam1_bsp/\libhal_bsp.a(alt_dcache_flush_all.o)
 .debug_abbrev  0x0000000000009663      0x114 C:/Users/test/Documents/EPFL/MA1/Embedded/Lab4/lab_4_V2/sw/lab4_cam1_bsp/\libhal_bsp.a(alt_dev_llist_insert.o)
 .debug_abbrev  0x0000000000009777       0x79 C:/Users/test/Documents/EPFL/MA1/Embedded/Lab4/lab_4_V2/sw/lab4_cam1_bsp/\libhal_bsp.a(alt_do_ctors.o)
 .debug_abbrev  0x00000000000097f0       0x79 C:/Users/test/Documents/EPFL/MA1/Embedded/Lab4/lab_4_V2/sw/lab4_cam1_bsp/\libhal_bsp.a(alt_do_dtors.o)
 .debug_abbrev  0x0000000000009869       0xf0 C:/Users/test/Documents/EPFL/MA1/Embedded/Lab4/lab_4_V2/sw/lab4_cam1_bsp/\libhal_bsp.a(alt_find_dev.o)
 .debug_abbrev  0x0000000000009959       0xf0 C:/Users/test/Documents/EPFL/MA1/Embedded/Lab4/lab_4_V2/sw/lab4_cam1_bsp/\libhal_bsp.a(alt_find_file.o)
 .debug_abbrev  0x0000000000009a49      0x108 C:/Users/test/Documents/EPFL/MA1/Embedded/Lab4/lab_4_V2/sw/lab4_cam1_bsp/\libhal_bsp.a(alt_fs_reg.o)
 .debug_abbrev  0x0000000000009b51      0x10d C:/Users/test/Documents/EPFL/MA1/Embedded/Lab4/lab_4_V2/sw/lab4_cam1_bsp/\libhal_bsp.a(alt_get_fd.o)
 .debug_abbrev  0x0000000000009c5e       0x42 C:/Users/test/Documents/EPFL/MA1/Embedded/Lab4/lab_4_V2/sw/lab4_cam1_bsp/\libhal_bsp.a(alt_icache_flush_all.o)
 .debug_abbrev  0x0000000000009ca0      0x163 C:/Users/test/Documents/EPFL/MA1/Embedded/Lab4/lab_4_V2/sw/lab4_cam1_bsp/\libhal_bsp.a(alt_iic.o)
 .debug_abbrev  0x0000000000009e03      0x169 C:/Users/test/Documents/EPFL/MA1/Embedded/Lab4/lab_4_V2/sw/lab4_cam1_bsp/\libhal_bsp.a(alt_iic_isr_register.o)
 .debug_abbrev  0x0000000000009f6c      0x114 C:/Users/test/Documents/EPFL/MA1/Embedded/Lab4/lab_4_V2/sw/lab4_cam1_bsp/\libhal_bsp.a(alt_io_redirect.o)
 .debug_abbrev  0x000000000000a080       0x12 C:/Users/test/Documents/EPFL/MA1/Embedded/Lab4/lab_4_V2/sw/lab4_cam1_bsp/\libhal_bsp.a(alt_irq_entry.o)
 .debug_abbrev  0x000000000000a092      0x122 C:/Users/test/Documents/EPFL/MA1/Embedded/Lab4/lab_4_V2/sw/lab4_cam1_bsp/\libhal_bsp.a(alt_irq_handler.o)
 .debug_abbrev  0x000000000000a1b4       0x40 C:/Users/test/Documents/EPFL/MA1/Embedded/Lab4/lab_4_V2/sw/lab4_cam1_bsp/\libhal_bsp.a(alt_irq_vars.o)
 .debug_abbrev  0x000000000000a1f4      0x15a C:/Users/test/Documents/EPFL/MA1/Embedded/Lab4/lab_4_V2/sw/lab4_cam1_bsp/\libhal_bsp.a(alt_tick.o)
 .debug_abbrev  0x000000000000a34e       0x42 C:/Users/test/Documents/EPFL/MA1/Embedded/Lab4/lab_4_V2/sw/lab4_cam1_bsp/\libhal_bsp.a(altera_nios2_gen2_irq.o)
 .debug_abbrev  0x000000000000a390       0x12 C:/Users/test/Documents/EPFL/MA1/Embedded/Lab4/lab_4_V2/sw/lab4_cam1_bsp/\libhal_bsp.a(alt_exception_entry.o)
 .debug_abbrev  0x000000000000a3a2       0x8c C:/Users/test/Documents/EPFL/MA1/Embedded/Lab4/lab_4_V2/sw/lab4_cam1_bsp/\libhal_bsp.a(alt_icache_flush.o)
 .debug_abbrev  0x000000000000a42e       0xdc C:/Users/test/Documents/EPFL/MA1/Embedded/Lab4/lab_4_V2/sw/lab4_cam1_bsp/\libhal_bsp.a(alt_instruction_exception_entry.o)
 .debug_abbrev  0x000000000000a50a       0xaa x:/quartus/18.1/nios2eds/bin/gnu/h-x86_64-mingw32/bin/../lib/gcc/nios2-elf/5.3.0/../../../../../H-x86_64-mingw32/nios2-elf/lib\libc.a(lib_a-atexit.o)
 .debug_abbrev  0x000000000000a5b4      0x1e5 x:/quartus/18.1/nios2eds/bin/gnu/h-x86_64-mingw32/bin/../lib/gcc/nios2-elf/5.3.0/../../../../../H-x86_64-mingw32/nios2-elf/lib\libc.a(lib_a-exit.o)
 .debug_abbrev  0x000000000000a799       0x7f x:/quartus/18.1/nios2eds/bin/gnu/h-x86_64-mingw32/bin/../lib/gcc/nios2-elf/5.3.0/../../../../../H-x86_64-mingw32/nios2-elf/lib\libc.a(lib_a-memcmp.o)
 .debug_abbrev  0x000000000000a818      0x21e x:/quartus/18.1/nios2eds/bin/gnu/h-x86_64-mingw32/bin/../lib/gcc/nios2-elf/5.3.0/../../../../../H-x86_64-mingw32/nios2-elf/lib\libc.a(lib_a-__atexit.o)
 .debug_abbrev  0x000000000000aa36      0x22e x:/quartus/18.1/nios2eds/bin/gnu/h-x86_64-mingw32/bin/../lib/gcc/nios2-elf/5.3.0/../../../../../H-x86_64-mingw32/nios2-elf/lib\libc.a(lib_a-__call_atexit.o)
 .debug_abbrev  0x000000000000ac64       0xa9 C:/Users/test/Documents/EPFL/MA1/Embedded/Lab4/lab_4_V2/sw/lab4_cam1_bsp/\libhal_bsp.a(alt_exit.o)

.debug_line     0x0000000000000000     0xd41f
 *(.debug_line)
 .debug_line    0x0000000000000000       0x72 C:/Users/test/Documents/EPFL/MA1/Embedded/Lab4/lab_4_V2/sw/lab4_cam1_bsp//obj/HAL/src/crt0.o
 .debug_line    0x0000000000000072      0x30b obj/default/cmos_sensor_output_generator/cmos_sensor_output_generator.o
 .debug_line    0x000000000000037d      0x2e4 obj/default/hello_world.o
 .debug_line    0x0000000000000661      0x234 obj/default/i2c/i2c.o
 .debug_line    0x0000000000000895      0x102 x:/quartus/18.1/nios2eds/bin/gnu/h-x86_64-mingw32/bin/../lib/gcc/nios2-elf/5.3.0\libgcc.a(lib2-divmod.o)
 .debug_line    0x0000000000000997      0x236 x:/quartus/18.1/nios2eds/bin/gnu/h-x86_64-mingw32/bin/../lib/gcc/nios2-elf/5.3.0/../../../../../H-x86_64-mingw32/nios2-elf/lib\libc.a(lib_a-fclose.o)
 .debug_line    0x0000000000000bcd      0x2e7 x:/quartus/18.1/nios2eds/bin/gnu/h-x86_64-mingw32/bin/../lib/gcc/nios2-elf/5.3.0/../../../../../H-x86_64-mingw32/nios2-elf/lib\libc.a(lib_a-fflush.o)
 .debug_line    0x0000000000000eb4      0x36f x:/quartus/18.1/nios2eds/bin/gnu/h-x86_64-mingw32/bin/../lib/gcc/nios2-elf/5.3.0/../../../../../H-x86_64-mingw32/nios2-elf/lib\libc.a(lib_a-findfp.o)
 .debug_line    0x0000000000001223      0x223 x:/quartus/18.1/nios2eds/bin/gnu/h-x86_64-mingw32/bin/../lib/gcc/nios2-elf/5.3.0/../../../../../H-x86_64-mingw32/nios2-elf/lib\libc.a(lib_a-fopen.o)
 .debug_line    0x0000000000001446      0x208 x:/quartus/18.1/nios2eds/bin/gnu/h-x86_64-mingw32/bin/../lib/gcc/nios2-elf/5.3.0/../../../../../H-x86_64-mingw32/nios2-elf/lib\libc.a(lib_a-fprintf.o)
 .debug_line    0x000000000000164e      0x21d x:/quartus/18.1/nios2eds/bin/gnu/h-x86_64-mingw32/bin/../lib/gcc/nios2-elf/5.3.0/../../../../../H-x86_64-mingw32/nios2-elf/lib\libc.a(lib_a-fputc.o)
 .debug_line    0x000000000000186b      0x2f4 x:/quartus/18.1/nios2eds/bin/gnu/h-x86_64-mingw32/bin/../lib/gcc/nios2-elf/5.3.0/../../../../../H-x86_64-mingw32/nios2-elf/lib\libc.a(lib_a-freer.o)
 .debug_line    0x0000000000001b5f      0x1f3 x:/quartus/18.1/nios2eds/bin/gnu/h-x86_64-mingw32/bin/../lib/gcc/nios2-elf/5.3.0/../../../../../H-x86_64-mingw32/nios2-elf/lib\libc.a(lib_a-fseek.o)
 .debug_line    0x0000000000001d52      0x349 x:/quartus/18.1/nios2eds/bin/gnu/h-x86_64-mingw32/bin/../lib/gcc/nios2-elf/5.3.0/../../../../../H-x86_64-mingw32/nios2-elf/lib\libc.a(lib_a-fseeko.o)
 .debug_line    0x000000000000209b      0x1fc x:/quartus/18.1/nios2eds/bin/gnu/h-x86_64-mingw32/bin/../lib/gcc/nios2-elf/5.3.0/../../../../../H-x86_64-mingw32/nios2-elf/lib\libc.a(lib_a-fstatr.o)
 .debug_line    0x0000000000002297      0x237 x:/quartus/18.1/nios2eds/bin/gnu/h-x86_64-mingw32/bin/../lib/gcc/nios2-elf/5.3.0/../../../../../H-x86_64-mingw32/nios2-elf/lib\libc.a(lib_a-fwalk.o)
 .debug_line    0x00000000000024ce      0x15d x:/quartus/18.1/nios2eds/bin/gnu/h-x86_64-mingw32/bin/../lib/gcc/nios2-elf/5.3.0/../../../../../H-x86_64-mingw32/nios2-elf/lib\libc.a(lib_a-impure.o)
 .debug_line    0x000000000000262b       0x5c x:/quartus/18.1/nios2eds/bin/gnu/h-x86_64-mingw32/bin/../lib/gcc/nios2-elf/5.3.0/../../../../../H-x86_64-mingw32/nios2-elf/lib\libc.a(lib_a-int_errno.o)
 .debug_line    0x0000000000002687      0x271 x:/quartus/18.1/nios2eds/bin/gnu/h-x86_64-mingw32/bin/../lib/gcc/nios2-elf/5.3.0/../../../../../H-x86_64-mingw32/nios2-elf/lib\libc.a(lib_a-makebuf.o)
 .debug_line    0x00000000000028f8      0x3f9 x:/quartus/18.1/nios2eds/bin/gnu/h-x86_64-mingw32/bin/../lib/gcc/nios2-elf/5.3.0/../../../../../H-x86_64-mingw32/nios2-elf/lib\libc.a(lib_a-mallocr.o)
 .debug_line    0x0000000000002cf1      0x18c x:/quartus/18.1/nios2eds/bin/gnu/h-x86_64-mingw32/bin/../lib/gcc/nios2-elf/5.3.0/../../../../../H-x86_64-mingw32/nios2-elf/lib\libc.a(lib_a-memset.o)
 .debug_line    0x0000000000002e7d      0x1fa x:/quartus/18.1/nios2eds/bin/gnu/h-x86_64-mingw32/bin/../lib/gcc/nios2-elf/5.3.0/../../../../../H-x86_64-mingw32/nios2-elf/lib\libc.a(lib_a-openr.o)
 .debug_line    0x0000000000003077      0x208 x:/quartus/18.1/nios2eds/bin/gnu/h-x86_64-mingw32/bin/../lib/gcc/nios2-elf/5.3.0/../../../../../H-x86_64-mingw32/nios2-elf/lib\libc.a(lib_a-printf.o)
 .debug_line    0x000000000000327f      0x272 x:/quartus/18.1/nios2eds/bin/gnu/h-x86_64-mingw32/bin/../lib/gcc/nios2-elf/5.3.0/../../../../../H-x86_64-mingw32/nios2-elf/lib\libc.a(lib_a-putc.o)
 .debug_line    0x00000000000034f1      0x245 x:/quartus/18.1/nios2eds/bin/gnu/h-x86_64-mingw32/bin/../lib/gcc/nios2-elf/5.3.0/../../../../../H-x86_64-mingw32/nios2-elf/lib\libc.a(lib_a-puts.o)
 .debug_line    0x0000000000003736      0x27c x:/quartus/18.1/nios2eds/bin/gnu/h-x86_64-mingw32/bin/../lib/gcc/nios2-elf/5.3.0/../../../../../H-x86_64-mingw32/nios2-elf/lib\libc.a(lib_a-refill.o)
 .debug_line    0x00000000000039b2      0x207 x:/quartus/18.1/nios2eds/bin/gnu/h-x86_64-mingw32/bin/../lib/gcc/nios2-elf/5.3.0/../../../../../H-x86_64-mingw32/nios2-elf/lib\libc.a(lib_a-rewind.o)
 .debug_line    0x0000000000003bb9      0x1e6 x:/quartus/18.1/nios2eds/bin/gnu/h-x86_64-mingw32/bin/../lib/gcc/nios2-elf/5.3.0/../../../../../H-x86_64-mingw32/nios2-elf/lib\libc.a(lib_a-sbrkr.o)
 .debug_line    0x0000000000003d9f      0x267 x:/quartus/18.1/nios2eds/bin/gnu/h-x86_64-mingw32/bin/../lib/gcc/nios2-elf/5.3.0/../../../../../H-x86_64-mingw32/nios2-elf/lib\libc.a(lib_a-stdio.o)
 .debug_line    0x0000000000004006      0x16c x:/quartus/18.1/nios2eds/bin/gnu/h-x86_64-mingw32/bin/../lib/gcc/nios2-elf/5.3.0/../../../../../H-x86_64-mingw32/nios2-elf/lib\libc.a(lib_a-strlen.o)
 .debug_line    0x0000000000004172      0xc98 x:/quartus/18.1/nios2eds/bin/gnu/h-x86_64-mingw32/bin/../lib/gcc/nios2-elf/5.3.0/../../../../../H-x86_64-mingw32/nios2-elf/lib\libc.a(lib_a-vfprintf.o)
 .debug_line    0x0000000000004e0a      0x26e x:/quartus/18.1/nios2eds/bin/gnu/h-x86_64-mingw32/bin/../lib/gcc/nios2-elf/5.3.0/../../../../../H-x86_64-mingw32/nios2-elf/lib\libc.a(lib_a-wbuf.o)
 .debug_line    0x0000000000005078      0x1f3 x:/quartus/18.1/nios2eds/bin/gnu/h-x86_64-mingw32/bin/../lib/gcc/nios2-elf/5.3.0/../../../../../H-x86_64-mingw32/nios2-elf/lib\libc.a(lib_a-writer.o)
 .debug_line    0x000000000000526b      0x263 x:/quartus/18.1/nios2eds/bin/gnu/h-x86_64-mingw32/bin/../lib/gcc/nios2-elf/5.3.0/../../../../../H-x86_64-mingw32/nios2-elf/lib\libc.a(lib_a-wsetup.o)
 .debug_line    0x00000000000054ce      0x1f3 x:/quartus/18.1/nios2eds/bin/gnu/h-x86_64-mingw32/bin/../lib/gcc/nios2-elf/5.3.0/../../../../../H-x86_64-mingw32/nios2-elf/lib\libc.a(closer.o)
 .debug_line    0x00000000000056c1      0x7ca x:/quartus/18.1/nios2eds/bin/gnu/h-x86_64-mingw32/bin/../lib/gcc/nios2-elf/5.3.0/../../../../../H-x86_64-mingw32/nios2-elf/lib\libc.a(lib_a-dtoa.o)
 .debug_line    0x0000000000005e8b      0x196 x:/quartus/18.1/nios2eds/bin/gnu/h-x86_64-mingw32/bin/../lib/gcc/nios2-elf/5.3.0/../../../../../H-x86_64-mingw32/nios2-elf/lib\libc.a(lib_a-flags.o)
 .debug_line    0x0000000000006021      0x342 x:/quartus/18.1/nios2eds/bin/gnu/h-x86_64-mingw32/bin/../lib/gcc/nios2-elf/5.3.0/../../../../../H-x86_64-mingw32/nios2-elf/lib\libc.a(lib_a-fvwrite.o)
 .debug_line    0x0000000000006363      0x1f4 x:/quartus/18.1/nios2eds/bin/gnu/h-x86_64-mingw32/bin/../lib/gcc/nios2-elf/5.3.0/../../../../../H-x86_64-mingw32/nios2-elf/lib\libc.a(lib_a-isattyr.o)
 .debug_line    0x0000000000006557      0x28b x:/quartus/18.1/nios2eds/bin/gnu/h-x86_64-mingw32/bin/../lib/gcc/nios2-elf/5.3.0/../../../../../H-x86_64-mingw32/nios2-elf/lib\libc.a(lib_a-locale.o)
 .debug_line    0x00000000000067e2      0x1f3 x:/quartus/18.1/nios2eds/bin/gnu/h-x86_64-mingw32/bin/../lib/gcc/nios2-elf/5.3.0/../../../../../H-x86_64-mingw32/nios2-elf/lib\libc.a(lib_a-lseekr.o)
 .debug_line    0x00000000000069d5      0x18a x:/quartus/18.1/nios2eds/bin/gnu/h-x86_64-mingw32/bin/../lib/gcc/nios2-elf/5.3.0/../../../../../H-x86_64-mingw32/nios2-elf/lib\libc.a(lib_a-memchr.o)
 .debug_line    0x0000000000006b5f      0x189 x:/quartus/18.1/nios2eds/bin/gnu/h-x86_64-mingw32/bin/../lib/gcc/nios2-elf/5.3.0/../../../../../H-x86_64-mingw32/nios2-elf/lib\libc.a(lib_a-memcpy.o)
 .debug_line    0x0000000000006ce8      0x18a x:/quartus/18.1/nios2eds/bin/gnu/h-x86_64-mingw32/bin/../lib/gcc/nios2-elf/5.3.0/../../../../../H-x86_64-mingw32/nios2-elf/lib\libc.a(lib_a-memmove.o)
 .debug_line    0x0000000000006e72      0x787 x:/quartus/18.1/nios2eds/bin/gnu/h-x86_64-mingw32/bin/../lib/gcc/nios2-elf/5.3.0/../../../../../H-x86_64-mingw32/nios2-elf/lib\libc.a(lib_a-mprec.o)
 .debug_line    0x00000000000075f9      0x1f2 x:/quartus/18.1/nios2eds/bin/gnu/h-x86_64-mingw32/bin/../lib/gcc/nios2-elf/5.3.0/../../../../../H-x86_64-mingw32/nios2-elf/lib\libc.a(lib_a-readr.o)
 .debug_line    0x00000000000077eb      0x2f2 x:/quartus/18.1/nios2eds/bin/gnu/h-x86_64-mingw32/bin/../lib/gcc/nios2-elf/5.3.0/../../../../../H-x86_64-mingw32/nios2-elf/lib\libc.a(lib_a-reallocr.o)
 .debug_line    0x0000000000007add      0x16c x:/quartus/18.1/nios2eds/bin/gnu/h-x86_64-mingw32/bin/../lib/gcc/nios2-elf/5.3.0/../../../../../H-x86_64-mingw32/nios2-elf/lib\libc.a(lib_a-s_fpclassify.o)
 .debug_line    0x0000000000007c49       0xfe x:/quartus/18.1/nios2eds/bin/gnu/h-x86_64-mingw32/bin/../lib/gcc/nios2-elf/5.3.0/../../../../../H-x86_64-mingw32/nios2-elf/lib\libc.a(lib_a-strcmp.o)
 .debug_line    0x0000000000007d47      0x956 x:/quartus/18.1/nios2eds/bin/gnu/h-x86_64-mingw32/bin/../lib/gcc/nios2-elf/5.3.0/../../../../../H-x86_64-mingw32/nios2-elf/lib\libc.a(lib_a-vfiprintf.o)
 .debug_line    0x000000000000869d      0x1a8 x:/quartus/18.1/nios2eds/bin/gnu/h-x86_64-mingw32/bin/../lib/gcc/nios2-elf/5.3.0/../../../../../H-x86_64-mingw32/nios2-elf/lib\libc.a(lib_a-callocr.o)
 .debug_line    0x0000000000008845      0x2a2 x:/quartus/18.1/nios2eds/bin/gnu/h-x86_64-mingw32/bin/../lib/gcc/nios2-elf/5.3.0/../../../../../H-x86_64-mingw32/nios2-elf/lib\libc.a(lib_a-fputwc.o)
 .debug_line    0x0000000000008ae7      0x223 x:/quartus/18.1/nios2eds/bin/gnu/h-x86_64-mingw32/bin/../lib/gcc/nios2-elf/5.3.0/../../../../../H-x86_64-mingw32/nios2-elf/lib\libc.a(lib_a-wcrtomb.o)
 .debug_line    0x0000000000008d0a      0x217 x:/quartus/18.1/nios2eds/bin/gnu/h-x86_64-mingw32/bin/../lib/gcc/nios2-elf/5.3.0/../../../../../H-x86_64-mingw32/nios2-elf/lib\libc.a(lib_a-wctomb_r.o)
 .debug_line    0x0000000000008f21      0x12a x:/quartus/18.1/nios2eds/bin/gnu/h-x86_64-mingw32/bin/../lib/gcc/nios2-elf/5.3.0\libgcc.a(_udivdi3.o)
 .debug_line    0x000000000000904b      0x13a x:/quartus/18.1/nios2eds/bin/gnu/h-x86_64-mingw32/bin/../lib/gcc/nios2-elf/5.3.0\libgcc.a(_umoddi3.o)
 .debug_line    0x0000000000009185      0x37b x:/quartus/18.1/nios2eds/bin/gnu/h-x86_64-mingw32/bin/../lib/gcc/nios2-elf/5.3.0\libgcc.a(adddf3.o)
 .debug_line    0x0000000000009500      0x2ad x:/quartus/18.1/nios2eds/bin/gnu/h-x86_64-mingw32/bin/../lib/gcc/nios2-elf/5.3.0\libgcc.a(divdf3.o)
 .debug_line    0x00000000000097ad       0xaa x:/quartus/18.1/nios2eds/bin/gnu/h-x86_64-mingw32/bin/../lib/gcc/nios2-elf/5.3.0\libgcc.a(eqdf2.o)
 .debug_line    0x0000000000009857       0xcb x:/quartus/18.1/nios2eds/bin/gnu/h-x86_64-mingw32/bin/../lib/gcc/nios2-elf/5.3.0\libgcc.a(gedf2.o)
 .debug_line    0x0000000000009922       0xe3 x:/quartus/18.1/nios2eds/bin/gnu/h-x86_64-mingw32/bin/../lib/gcc/nios2-elf/5.3.0\libgcc.a(ledf2.o)
 .debug_line    0x0000000000009a05      0x1e3 x:/quartus/18.1/nios2eds/bin/gnu/h-x86_64-mingw32/bin/../lib/gcc/nios2-elf/5.3.0\libgcc.a(muldf3.o)
 .debug_line    0x0000000000009be8      0x3a8 x:/quartus/18.1/nios2eds/bin/gnu/h-x86_64-mingw32/bin/../lib/gcc/nios2-elf/5.3.0\libgcc.a(subdf3.o)
 .debug_line    0x0000000000009f90       0x98 x:/quartus/18.1/nios2eds/bin/gnu/h-x86_64-mingw32/bin/../lib/gcc/nios2-elf/5.3.0\libgcc.a(fixdfsi.o)
 .debug_line    0x000000000000a028       0x9f x:/quartus/18.1/nios2eds/bin/gnu/h-x86_64-mingw32/bin/../lib/gcc/nios2-elf/5.3.0\libgcc.a(floatsidf.o)
 .debug_line    0x000000000000a0c7       0x92 x:/quartus/18.1/nios2eds/bin/gnu/h-x86_64-mingw32/bin/../lib/gcc/nios2-elf/5.3.0\libgcc.a(floatunsidf.o)
 .debug_line    0x000000000000a159       0x53 x:/quartus/18.1/nios2eds/bin/gnu/h-x86_64-mingw32/bin/../lib/gcc/nios2-elf/5.3.0\libgcc.a(_clz.o)
 .debug_line    0x000000000000a1ac       0xb7 x:/quartus/18.1/nios2eds/bin/gnu/h-x86_64-mingw32/bin/../lib/gcc/nios2-elf/5.3.0\libgcc.a(_clzsi2.o)
 .debug_line    0x000000000000a263      0x15e C:/Users/test/Documents/EPFL/MA1/Embedded/Lab4/lab_4_V2/sw/lab4_cam1_bsp/\libhal_bsp.a(alt_close.o)
 .debug_line    0x000000000000a3c1       0xf1 C:/Users/test/Documents/EPFL/MA1/Embedded/Lab4/lab_4_V2/sw/lab4_cam1_bsp/\libhal_bsp.a(alt_dev.o)
 .debug_line    0x000000000000a4b2       0x51 C:/Users/test/Documents/EPFL/MA1/Embedded/Lab4/lab_4_V2/sw/lab4_cam1_bsp/\libhal_bsp.a(alt_errno.o)
 .debug_line    0x000000000000a503      0x157 C:/Users/test/Documents/EPFL/MA1/Embedded/Lab4/lab_4_V2/sw/lab4_cam1_bsp/\libhal_bsp.a(alt_fstat.o)
 .debug_line    0x000000000000a65a      0x15b C:/Users/test/Documents/EPFL/MA1/Embedded/Lab4/lab_4_V2/sw/lab4_cam1_bsp/\libhal_bsp.a(alt_isatty.o)
 .debug_line    0x000000000000a7b5       0x8e C:/Users/test/Documents/EPFL/MA1/Embedded/Lab4/lab_4_V2/sw/lab4_cam1_bsp/\libhal_bsp.a(alt_load.o)
 .debug_line    0x000000000000a843      0x15c C:/Users/test/Documents/EPFL/MA1/Embedded/Lab4/lab_4_V2/sw/lab4_cam1_bsp/\libhal_bsp.a(alt_lseek.o)
 .debug_line    0x000000000000a99f       0xa4 C:/Users/test/Documents/EPFL/MA1/Embedded/Lab4/lab_4_V2/sw/lab4_cam1_bsp/\libhal_bsp.a(alt_main.o)
 .debug_line    0x000000000000aa43      0x114 C:/Users/test/Documents/EPFL/MA1/Embedded/Lab4/lab_4_V2/sw/lab4_cam1_bsp/\libhal_bsp.a(alt_malloc_lock.o)
 .debug_line    0x000000000000ab57      0x128 C:/Users/test/Documents/EPFL/MA1/Embedded/Lab4/lab_4_V2/sw/lab4_cam1_bsp/\libhal_bsp.a(alt_open.o)
 .debug_line    0x000000000000ac7f      0x1ce C:/Users/test/Documents/EPFL/MA1/Embedded/Lab4/lab_4_V2/sw/lab4_cam1_bsp/\libhal_bsp.a(alt_read.o)
 .debug_line    0x000000000000ae4d       0xae C:/Users/test/Documents/EPFL/MA1/Embedded/Lab4/lab_4_V2/sw/lab4_cam1_bsp/\libhal_bsp.a(alt_release_fd.o)
 .debug_line    0x000000000000aefb       0xec C:/Users/test/Documents/EPFL/MA1/Embedded/Lab4/lab_4_V2/sw/lab4_cam1_bsp/\libhal_bsp.a(alt_sbrk.o)
 .debug_line    0x000000000000afe7       0xa6 C:/Users/test/Documents/EPFL/MA1/Embedded/Lab4/lab_4_V2/sw/lab4_cam1_bsp/\libhal_bsp.a(alt_usleep.o)
 .debug_line    0x000000000000b08d      0x1cd C:/Users/test/Documents/EPFL/MA1/Embedded/Lab4/lab_4_V2/sw/lab4_cam1_bsp/\libhal_bsp.a(alt_write.o)
 .debug_line    0x000000000000b25a      0x14a C:/Users/test/Documents/EPFL/MA1/Embedded/Lab4/lab_4_V2/sw/lab4_cam1_bsp/\libhal_bsp.a(alt_sys_init.o)
 .debug_line    0x000000000000b3a4      0x12f C:/Users/test/Documents/EPFL/MA1/Embedded/Lab4/lab_4_V2/sw/lab4_cam1_bsp/\libhal_bsp.a(altera_avalon_jtag_uart_fd.o)
 .debug_line    0x000000000000b4d3      0x18b C:/Users/test/Documents/EPFL/MA1/Embedded/Lab4/lab_4_V2/sw/lab4_cam1_bsp/\libhal_bsp.a(altera_avalon_jtag_uart_init.o)
 .debug_line    0x000000000000b65e      0x131 C:/Users/test/Documents/EPFL/MA1/Embedded/Lab4/lab_4_V2/sw/lab4_cam1_bsp/\libhal_bsp.a(altera_avalon_jtag_uart_ioctl.o)
 .debug_line    0x000000000000b78f      0x171 C:/Users/test/Documents/EPFL/MA1/Embedded/Lab4/lab_4_V2/sw/lab4_cam1_bsp/\libhal_bsp.a(altera_avalon_jtag_uart_read.o)
 .debug_line    0x000000000000b900      0x170 C:/Users/test/Documents/EPFL/MA1/Embedded/Lab4/lab_4_V2/sw/lab4_cam1_bsp/\libhal_bsp.a(altera_avalon_jtag_uart_write.o)
 .debug_line    0x000000000000ba70      0x22c C:/Users/test/Documents/EPFL/MA1/Embedded/Lab4/lab_4_V2/sw/lab4_cam1_bsp/\libhal_bsp.a(altera_hostfs.o)
 .debug_line    0x000000000000bc9c       0xf9 C:/Users/test/Documents/EPFL/MA1/Embedded/Lab4/lab_4_V2/sw/lab4_cam1_bsp/\libhal_bsp.a(alt_alarm_start.o)
 .debug_line    0x000000000000bd95       0xa0 C:/Users/test/Documents/EPFL/MA1/Embedded/Lab4/lab_4_V2/sw/lab4_cam1_bsp/\libhal_bsp.a(alt_busy_sleep.o)
 .debug_line    0x000000000000be35       0x61 C:/Users/test/Documents/EPFL/MA1/Embedded/Lab4/lab_4_V2/sw/lab4_cam1_bsp/\libhal_bsp.a(alt_dcache_flush_all.o)
 .debug_line    0x000000000000be96       0xcf C:/Users/test/Documents/EPFL/MA1/Embedded/Lab4/lab_4_V2/sw/lab4_cam1_bsp/\libhal_bsp.a(alt_dev_llist_insert.o)
 .debug_line    0x000000000000bf65       0x59 C:/Users/test/Documents/EPFL/MA1/Embedded/Lab4/lab_4_V2/sw/lab4_cam1_bsp/\libhal_bsp.a(alt_do_ctors.o)
 .debug_line    0x000000000000bfbe       0x59 C:/Users/test/Documents/EPFL/MA1/Embedded/Lab4/lab_4_V2/sw/lab4_cam1_bsp/\libhal_bsp.a(alt_do_dtors.o)
 .debug_line    0x000000000000c017       0xb5 C:/Users/test/Documents/EPFL/MA1/Embedded/Lab4/lab_4_V2/sw/lab4_cam1_bsp/\libhal_bsp.a(alt_find_dev.o)
 .debug_line    0x000000000000c0cc       0xd1 C:/Users/test/Documents/EPFL/MA1/Embedded/Lab4/lab_4_V2/sw/lab4_cam1_bsp/\libhal_bsp.a(alt_find_file.o)
 .debug_line    0x000000000000c19d       0xb5 C:/Users/test/Documents/EPFL/MA1/Embedded/Lab4/lab_4_V2/sw/lab4_cam1_bsp/\libhal_bsp.a(alt_fs_reg.o)
 .debug_line    0x000000000000c252       0xd4 C:/Users/test/Documents/EPFL/MA1/Embedded/Lab4/lab_4_V2/sw/lab4_cam1_bsp/\libhal_bsp.a(alt_get_fd.o)
 .debug_line    0x000000000000c326       0x50 C:/Users/test/Documents/EPFL/MA1/Embedded/Lab4/lab_4_V2/sw/lab4_cam1_bsp/\libhal_bsp.a(alt_icache_flush_all.o)
 .debug_line    0x000000000000c376       0xeb C:/Users/test/Documents/EPFL/MA1/Embedded/Lab4/lab_4_V2/sw/lab4_cam1_bsp/\libhal_bsp.a(alt_iic.o)
 .debug_line    0x000000000000c461       0xdb C:/Users/test/Documents/EPFL/MA1/Embedded/Lab4/lab_4_V2/sw/lab4_cam1_bsp/\libhal_bsp.a(alt_iic_isr_register.o)
 .debug_line    0x000000000000c53c      0x12c C:/Users/test/Documents/EPFL/MA1/Embedded/Lab4/lab_4_V2/sw/lab4_cam1_bsp/\libhal_bsp.a(alt_io_redirect.o)
 .debug_line    0x000000000000c668       0x6b C:/Users/test/Documents/EPFL/MA1/Embedded/Lab4/lab_4_V2/sw/lab4_cam1_bsp/\libhal_bsp.a(alt_irq_entry.o)
 .debug_line    0x000000000000c6d3       0xaa C:/Users/test/Documents/EPFL/MA1/Embedded/Lab4/lab_4_V2/sw/lab4_cam1_bsp/\libhal_bsp.a(alt_irq_handler.o)
 .debug_line    0x000000000000c77d       0x50 C:/Users/test/Documents/EPFL/MA1/Embedded/Lab4/lab_4_V2/sw/lab4_cam1_bsp/\libhal_bsp.a(alt_irq_vars.o)
 .debug_line    0x000000000000c7cd       0xff C:/Users/test/Documents/EPFL/MA1/Embedded/Lab4/lab_4_V2/sw/lab4_cam1_bsp/\libhal_bsp.a(alt_tick.o)
 .debug_line    0x000000000000c8cc       0x51 C:/Users/test/Documents/EPFL/MA1/Embedded/Lab4/lab_4_V2/sw/lab4_cam1_bsp/\libhal_bsp.a(altera_nios2_gen2_irq.o)
 .debug_line    0x000000000000c91d       0xb3 C:/Users/test/Documents/EPFL/MA1/Embedded/Lab4/lab_4_V2/sw/lab4_cam1_bsp/\libhal_bsp.a(alt_exception_entry.o)
 .debug_line    0x000000000000c9d0       0x81 C:/Users/test/Documents/EPFL/MA1/Embedded/Lab4/lab_4_V2/sw/lab4_cam1_bsp/\libhal_bsp.a(alt_icache_flush.o)
 .debug_line    0x000000000000ca51       0xba C:/Users/test/Documents/EPFL/MA1/Embedded/Lab4/lab_4_V2/sw/lab4_cam1_bsp/\libhal_bsp.a(alt_instruction_exception_entry.o)
 .debug_line    0x000000000000cb0b       0xe4 x:/quartus/18.1/nios2eds/bin/gnu/h-x86_64-mingw32/bin/../lib/gcc/nios2-elf/5.3.0/../../../../../H-x86_64-mingw32/nios2-elf/lib\libc.a(lib_a-atexit.o)
 .debug_line    0x000000000000cbef      0x1f9 x:/quartus/18.1/nios2eds/bin/gnu/h-x86_64-mingw32/bin/../lib/gcc/nios2-elf/5.3.0/../../../../../H-x86_64-mingw32/nios2-elf/lib\libc.a(lib_a-exit.o)
 .debug_line    0x000000000000cde8      0x173 x:/quartus/18.1/nios2eds/bin/gnu/h-x86_64-mingw32/bin/../lib/gcc/nios2-elf/5.3.0/../../../../../H-x86_64-mingw32/nios2-elf/lib\libc.a(lib_a-memcmp.o)
 .debug_line    0x000000000000cf5b      0x21c x:/quartus/18.1/nios2eds/bin/gnu/h-x86_64-mingw32/bin/../lib/gcc/nios2-elf/5.3.0/../../../../../H-x86_64-mingw32/nios2-elf/lib\libc.a(lib_a-__atexit.o)
 .debug_line    0x000000000000d177      0x237 x:/quartus/18.1/nios2eds/bin/gnu/h-x86_64-mingw32/bin/../lib/gcc/nios2-elf/5.3.0/../../../../../H-x86_64-mingw32/nios2-elf/lib\libc.a(lib_a-__call_atexit.o)
 .debug_line    0x000000000000d3ae       0x71 C:/Users/test/Documents/EPFL/MA1/Embedded/Lab4/lab_4_V2/sw/lab4_cam1_bsp/\libhal_bsp.a(alt_exit.o)

.debug_frame    0x0000000000000000     0x2974
 *(.debug_frame)
 .debug_frame   0x0000000000000000      0x2dc obj/default/cmos_sensor_output_generator/cmos_sensor_output_generator.o
 .debug_frame   0x00000000000002dc       0x88 obj/default/hello_world.o
 .debug_frame   0x0000000000000364      0x1c8 obj/default/i2c/i2c.o
 .debug_frame   0x000000000000052c       0x50 x:/quartus/18.1/nios2eds/bin/gnu/h-x86_64-mingw32/bin/../lib/gcc/nios2-elf/5.3.0\libgcc.a(lib2-divmod.o)
 .debug_frame   0x000000000000057c       0x54 x:/quartus/18.1/nios2eds/bin/gnu/h-x86_64-mingw32/bin/../lib/gcc/nios2-elf/5.3.0/../../../../../H-x86_64-mingw32/nios2-elf/lib\libc.a(lib_a-fclose.o)
 .debug_frame   0x00000000000005d0       0x7c x:/quartus/18.1/nios2eds/bin/gnu/h-x86_64-mingw32/bin/../lib/gcc/nios2-elf/5.3.0/../../../../../H-x86_64-mingw32/nios2-elf/lib\libc.a(lib_a-fflush.o)
 .debug_frame   0x000000000000064c      0x160 x:/quartus/18.1/nios2eds/bin/gnu/h-x86_64-mingw32/bin/../lib/gcc/nios2-elf/5.3.0/../../../../../H-x86_64-mingw32/nios2-elf/lib\libc.a(lib_a-findfp.o)
 .debug_frame   0x00000000000007ac       0x50 x:/quartus/18.1/nios2eds/bin/gnu/h-x86_64-mingw32/bin/../lib/gcc/nios2-elf/5.3.0/../../../../../H-x86_64-mingw32/nios2-elf/lib\libc.a(lib_a-fopen.o)
 .debug_frame   0x00000000000007fc       0x48 x:/quartus/18.1/nios2eds/bin/gnu/h-x86_64-mingw32/bin/../lib/gcc/nios2-elf/5.3.0/../../../../../H-x86_64-mingw32/nios2-elf/lib\libc.a(lib_a-fprintf.o)
 .debug_frame   0x0000000000000844       0x54 x:/quartus/18.1/nios2eds/bin/gnu/h-x86_64-mingw32/bin/../lib/gcc/nios2-elf/5.3.0/../../../../../H-x86_64-mingw32/nios2-elf/lib\libc.a(lib_a-fputc.o)
 .debug_frame   0x0000000000000898       0x70 x:/quartus/18.1/nios2eds/bin/gnu/h-x86_64-mingw32/bin/../lib/gcc/nios2-elf/5.3.0/../../../../../H-x86_64-mingw32/nios2-elf/lib\libc.a(lib_a-freer.o)
 .debug_frame   0x0000000000000908       0x30 x:/quartus/18.1/nios2eds/bin/gnu/h-x86_64-mingw32/bin/../lib/gcc/nios2-elf/5.3.0/../../../../../H-x86_64-mingw32/nios2-elf/lib\libc.a(lib_a-fseek.o)
 .debug_frame   0x0000000000000938       0x60 x:/quartus/18.1/nios2eds/bin/gnu/h-x86_64-mingw32/bin/../lib/gcc/nios2-elf/5.3.0/../../../../../H-x86_64-mingw32/nios2-elf/lib\libc.a(lib_a-fseeko.o)
 .debug_frame   0x0000000000000998       0x38 x:/quartus/18.1/nios2eds/bin/gnu/h-x86_64-mingw32/bin/../lib/gcc/nios2-elf/5.3.0/../../../../../H-x86_64-mingw32/nios2-elf/lib\libc.a(lib_a-fstatr.o)
 .debug_frame   0x00000000000009d0       0x90 x:/quartus/18.1/nios2eds/bin/gnu/h-x86_64-mingw32/bin/../lib/gcc/nios2-elf/5.3.0/../../../../../H-x86_64-mingw32/nios2-elf/lib\libc.a(lib_a-fwalk.o)
 .debug_frame   0x0000000000000a60       0x4c x:/quartus/18.1/nios2eds/bin/gnu/h-x86_64-mingw32/bin/../lib/gcc/nios2-elf/5.3.0/../../../../../H-x86_64-mingw32/nios2-elf/lib\libc.a(lib_a-makebuf.o)
 .debug_frame   0x0000000000000aac       0x54 x:/quartus/18.1/nios2eds/bin/gnu/h-x86_64-mingw32/bin/../lib/gcc/nios2-elf/5.3.0/../../../../../H-x86_64-mingw32/nios2-elf/lib\libc.a(lib_a-mallocr.o)
 .debug_frame   0x0000000000000b00       0x20 x:/quartus/18.1/nios2eds/bin/gnu/h-x86_64-mingw32/bin/../lib/gcc/nios2-elf/5.3.0/../../../../../H-x86_64-mingw32/nios2-elf/lib\libc.a(lib_a-memset.o)
 .debug_frame   0x0000000000000b20       0x38 x:/quartus/18.1/nios2eds/bin/gnu/h-x86_64-mingw32/bin/../lib/gcc/nios2-elf/5.3.0/../../../../../H-x86_64-mingw32/nios2-elf/lib\libc.a(lib_a-openr.o)
 .debug_frame   0x0000000000000b58       0x48 x:/quartus/18.1/nios2eds/bin/gnu/h-x86_64-mingw32/bin/../lib/gcc/nios2-elf/5.3.0/../../../../../H-x86_64-mingw32/nios2-elf/lib\libc.a(lib_a-printf.o)
 .debug_frame   0x0000000000000ba0       0x70 x:/quartus/18.1/nios2eds/bin/gnu/h-x86_64-mingw32/bin/../lib/gcc/nios2-elf/5.3.0/../../../../../H-x86_64-mingw32/nios2-elf/lib\libc.a(lib_a-putc.o)
 .debug_frame   0x0000000000000c10       0x48 x:/quartus/18.1/nios2eds/bin/gnu/h-x86_64-mingw32/bin/../lib/gcc/nios2-elf/5.3.0/../../../../../H-x86_64-mingw32/nios2-elf/lib\libc.a(lib_a-puts.o)
 .debug_frame   0x0000000000000c58       0x4c x:/quartus/18.1/nios2eds/bin/gnu/h-x86_64-mingw32/bin/../lib/gcc/nios2-elf/5.3.0/../../../../../H-x86_64-mingw32/nios2-elf/lib\libc.a(lib_a-refill.o)
 .debug_frame   0x0000000000000ca4       0x50 x:/quartus/18.1/nios2eds/bin/gnu/h-x86_64-mingw32/bin/../lib/gcc/nios2-elf/5.3.0/../../../../../H-x86_64-mingw32/nios2-elf/lib\libc.a(lib_a-rewind.o)
 .debug_frame   0x0000000000000cf4       0x38 x:/quartus/18.1/nios2eds/bin/gnu/h-x86_64-mingw32/bin/../lib/gcc/nios2-elf/5.3.0/../../../../../H-x86_64-mingw32/nios2-elf/lib\libc.a(lib_a-sbrkr.o)
 .debug_frame   0x0000000000000d2c       0xb4 x:/quartus/18.1/nios2eds/bin/gnu/h-x86_64-mingw32/bin/../lib/gcc/nios2-elf/5.3.0/../../../../../H-x86_64-mingw32/nios2-elf/lib\libc.a(lib_a-stdio.o)
 .debug_frame   0x0000000000000de0       0x20 x:/quartus/18.1/nios2eds/bin/gnu/h-x86_64-mingw32/bin/../lib/gcc/nios2-elf/5.3.0/../../../../../H-x86_64-mingw32/nios2-elf/lib\libc.a(lib_a-strlen.o)
 .debug_frame   0x0000000000000e00       0x98 x:/quartus/18.1/nios2eds/bin/gnu/h-x86_64-mingw32/bin/../lib/gcc/nios2-elf/5.3.0/../../../../../H-x86_64-mingw32/nios2-elf/lib\libc.a(lib_a-vfprintf.o)
 .debug_frame   0x0000000000000e98       0x50 x:/quartus/18.1/nios2eds/bin/gnu/h-x86_64-mingw32/bin/../lib/gcc/nios2-elf/5.3.0/../../../../../H-x86_64-mingw32/nios2-elf/lib\libc.a(lib_a-wbuf.o)
 .debug_frame   0x0000000000000ee8       0x38 x:/quartus/18.1/nios2eds/bin/gnu/h-x86_64-mingw32/bin/../lib/gcc/nios2-elf/5.3.0/../../../../../H-x86_64-mingw32/nios2-elf/lib\libc.a(lib_a-writer.o)
 .debug_frame   0x0000000000000f20       0x38 x:/quartus/18.1/nios2eds/bin/gnu/h-x86_64-mingw32/bin/../lib/gcc/nios2-elf/5.3.0/../../../../../H-x86_64-mingw32/nios2-elf/lib\libc.a(lib_a-wsetup.o)
 .debug_frame   0x0000000000000f58       0x38 x:/quartus/18.1/nios2eds/bin/gnu/h-x86_64-mingw32/bin/../lib/gcc/nios2-elf/5.3.0/../../../../../H-x86_64-mingw32/nios2-elf/lib\libc.a(closer.o)
 .debug_frame   0x0000000000000f90       0x98 x:/quartus/18.1/nios2eds/bin/gnu/h-x86_64-mingw32/bin/../lib/gcc/nios2-elf/5.3.0/../../../../../H-x86_64-mingw32/nios2-elf/lib\libc.a(lib_a-dtoa.o)
 .debug_frame   0x0000000000001028       0x20 x:/quartus/18.1/nios2eds/bin/gnu/h-x86_64-mingw32/bin/../lib/gcc/nios2-elf/5.3.0/../../../../../H-x86_64-mingw32/nios2-elf/lib\libc.a(lib_a-flags.o)
 .debug_frame   0x0000000000001048       0x78 x:/quartus/18.1/nios2eds/bin/gnu/h-x86_64-mingw32/bin/../lib/gcc/nios2-elf/5.3.0/../../../../../H-x86_64-mingw32/nios2-elf/lib\libc.a(lib_a-fvwrite.o)
 .debug_frame   0x00000000000010c0       0x38 x:/quartus/18.1/nios2eds/bin/gnu/h-x86_64-mingw32/bin/../lib/gcc/nios2-elf/5.3.0/../../../../../H-x86_64-mingw32/nios2-elf/lib\libc.a(lib_a-isattyr.o)
 .debug_frame   0x00000000000010f8       0xa8 x:/quartus/18.1/nios2eds/bin/gnu/h-x86_64-mingw32/bin/../lib/gcc/nios2-elf/5.3.0/../../../../../H-x86_64-mingw32/nios2-elf/lib\libc.a(lib_a-locale.o)
 .debug_frame   0x00000000000011a0       0x38 x:/quartus/18.1/nios2eds/bin/gnu/h-x86_64-mingw32/bin/../lib/gcc/nios2-elf/5.3.0/../../../../../H-x86_64-mingw32/nios2-elf/lib\libc.a(lib_a-lseekr.o)
 .debug_frame   0x00000000000011d8       0x20 x:/quartus/18.1/nios2eds/bin/gnu/h-x86_64-mingw32/bin/../lib/gcc/nios2-elf/5.3.0/../../../../../H-x86_64-mingw32/nios2-elf/lib\libc.a(lib_a-memchr.o)
 .debug_frame   0x00000000000011f8       0x38 x:/quartus/18.1/nios2eds/bin/gnu/h-x86_64-mingw32/bin/../lib/gcc/nios2-elf/5.3.0/../../../../../H-x86_64-mingw32/nios2-elf/lib\libc.a(lib_a-memcpy.o)
 .debug_frame   0x0000000000001230       0x20 x:/quartus/18.1/nios2eds/bin/gnu/h-x86_64-mingw32/bin/../lib/gcc/nios2-elf/5.3.0/../../../../../H-x86_64-mingw32/nios2-elf/lib\libc.a(lib_a-memmove.o)
 .debug_frame   0x0000000000001250      0x2e0 x:/quartus/18.1/nios2eds/bin/gnu/h-x86_64-mingw32/bin/../lib/gcc/nios2-elf/5.3.0/../../../../../H-x86_64-mingw32/nios2-elf/lib\libc.a(lib_a-mprec.o)
 .debug_frame   0x0000000000001530       0x38 x:/quartus/18.1/nios2eds/bin/gnu/h-x86_64-mingw32/bin/../lib/gcc/nios2-elf/5.3.0/../../../../../H-x86_64-mingw32/nios2-elf/lib\libc.a(lib_a-readr.o)
 .debug_frame   0x0000000000001568       0x70 x:/quartus/18.1/nios2eds/bin/gnu/h-x86_64-mingw32/bin/../lib/gcc/nios2-elf/5.3.0/../../../../../H-x86_64-mingw32/nios2-elf/lib\libc.a(lib_a-reallocr.o)
 .debug_frame   0x00000000000015d8       0x20 x:/quartus/18.1/nios2eds/bin/gnu/h-x86_64-mingw32/bin/../lib/gcc/nios2-elf/5.3.0/../../../../../H-x86_64-mingw32/nios2-elf/lib\libc.a(lib_a-s_fpclassify.o)
 .debug_frame   0x00000000000015f8       0x20 x:/quartus/18.1/nios2eds/bin/gnu/h-x86_64-mingw32/bin/../lib/gcc/nios2-elf/5.3.0/../../../../../H-x86_64-mingw32/nios2-elf/lib\libc.a(lib_a-strcmp.o)
 .debug_frame   0x0000000000001618       0xec x:/quartus/18.1/nios2eds/bin/gnu/h-x86_64-mingw32/bin/../lib/gcc/nios2-elf/5.3.0/../../../../../H-x86_64-mingw32/nios2-elf/lib\libc.a(lib_a-vfiprintf.o)
 .debug_frame   0x0000000000001704       0x40 x:/quartus/18.1/nios2eds/bin/gnu/h-x86_64-mingw32/bin/../lib/gcc/nios2-elf/5.3.0/../../../../../H-x86_64-mingw32/nios2-elf/lib\libc.a(lib_a-callocr.o)
 .debug_frame   0x0000000000001744       0x80 x:/quartus/18.1/nios2eds/bin/gnu/h-x86_64-mingw32/bin/../lib/gcc/nios2-elf/5.3.0/../../../../../H-x86_64-mingw32/nios2-elf/lib\libc.a(lib_a-fputwc.o)
 .debug_frame   0x00000000000017c4       0x70 x:/quartus/18.1/nios2eds/bin/gnu/h-x86_64-mingw32/bin/../lib/gcc/nios2-elf/5.3.0/../../../../../H-x86_64-mingw32/nios2-elf/lib\libc.a(lib_a-wcrtomb.o)
 .debug_frame   0x0000000000001834       0x44 x:/quartus/18.1/nios2eds/bin/gnu/h-x86_64-mingw32/bin/../lib/gcc/nios2-elf/5.3.0/../../../../../H-x86_64-mingw32/nios2-elf/lib\libc.a(lib_a-wctomb_r.o)
 .debug_frame   0x0000000000001878       0x54 x:/quartus/18.1/nios2eds/bin/gnu/h-x86_64-mingw32/bin/../lib/gcc/nios2-elf/5.3.0\libgcc.a(_udivdi3.o)
 .debug_frame   0x00000000000018cc       0x54 x:/quartus/18.1/nios2eds/bin/gnu/h-x86_64-mingw32/bin/../lib/gcc/nios2-elf/5.3.0\libgcc.a(_umoddi3.o)
 .debug_frame   0x0000000000001920       0x40 x:/quartus/18.1/nios2eds/bin/gnu/h-x86_64-mingw32/bin/../lib/gcc/nios2-elf/5.3.0\libgcc.a(adddf3.o)
 .debug_frame   0x0000000000001960       0x58 x:/quartus/18.1/nios2eds/bin/gnu/h-x86_64-mingw32/bin/../lib/gcc/nios2-elf/5.3.0\libgcc.a(divdf3.o)
 .debug_frame   0x00000000000019b8       0x20 x:/quartus/18.1/nios2eds/bin/gnu/h-x86_64-mingw32/bin/../lib/gcc/nios2-elf/5.3.0\libgcc.a(eqdf2.o)
 .debug_frame   0x00000000000019d8       0x20 x:/quartus/18.1/nios2eds/bin/gnu/h-x86_64-mingw32/bin/../lib/gcc/nios2-elf/5.3.0\libgcc.a(gedf2.o)
 .debug_frame   0x00000000000019f8       0x20 x:/quartus/18.1/nios2eds/bin/gnu/h-x86_64-mingw32/bin/../lib/gcc/nios2-elf/5.3.0\libgcc.a(ledf2.o)
 .debug_frame   0x0000000000001a18       0x58 x:/quartus/18.1/nios2eds/bin/gnu/h-x86_64-mingw32/bin/../lib/gcc/nios2-elf/5.3.0\libgcc.a(muldf3.o)
 .debug_frame   0x0000000000001a70       0x44 x:/quartus/18.1/nios2eds/bin/gnu/h-x86_64-mingw32/bin/../lib/gcc/nios2-elf/5.3.0\libgcc.a(subdf3.o)
 .debug_frame   0x0000000000001ab4       0x20 x:/quartus/18.1/nios2eds/bin/gnu/h-x86_64-mingw32/bin/../lib/gcc/nios2-elf/5.3.0\libgcc.a(fixdfsi.o)
 .debug_frame   0x0000000000001ad4       0x38 x:/quartus/18.1/nios2eds/bin/gnu/h-x86_64-mingw32/bin/../lib/gcc/nios2-elf/5.3.0\libgcc.a(floatsidf.o)
 .debug_frame   0x0000000000001b0c       0x34 x:/quartus/18.1/nios2eds/bin/gnu/h-x86_64-mingw32/bin/../lib/gcc/nios2-elf/5.3.0\libgcc.a(floatunsidf.o)
 .debug_frame   0x0000000000001b40       0x20 x:/quartus/18.1/nios2eds/bin/gnu/h-x86_64-mingw32/bin/../lib/gcc/nios2-elf/5.3.0\libgcc.a(_clzsi2.o)
 .debug_frame   0x0000000000001b60       0x60 C:/Users/test/Documents/EPFL/MA1/Embedded/Lab4/lab_4_V2/sw/lab4_cam1_bsp/\libhal_bsp.a(alt_close.o)
 .debug_frame   0x0000000000001bc0       0x34 C:/Users/test/Documents/EPFL/MA1/Embedded/Lab4/lab_4_V2/sw/lab4_cam1_bsp/\libhal_bsp.a(alt_dev.o)
 .debug_frame   0x0000000000001bf4       0x60 C:/Users/test/Documents/EPFL/MA1/Embedded/Lab4/lab_4_V2/sw/lab4_cam1_bsp/\libhal_bsp.a(alt_fstat.o)
 .debug_frame   0x0000000000001c54       0x60 C:/Users/test/Documents/EPFL/MA1/Embedded/Lab4/lab_4_V2/sw/lab4_cam1_bsp/\libhal_bsp.a(alt_isatty.o)
 .debug_frame   0x0000000000001cb4       0x5c C:/Users/test/Documents/EPFL/MA1/Embedded/Lab4/lab_4_V2/sw/lab4_cam1_bsp/\libhal_bsp.a(alt_load.o)
 .debug_frame   0x0000000000001d10       0x60 C:/Users/test/Documents/EPFL/MA1/Embedded/Lab4/lab_4_V2/sw/lab4_cam1_bsp/\libhal_bsp.a(alt_lseek.o)
 .debug_frame   0x0000000000001d70       0x2c C:/Users/test/Documents/EPFL/MA1/Embedded/Lab4/lab_4_V2/sw/lab4_cam1_bsp/\libhal_bsp.a(alt_main.o)
 .debug_frame   0x0000000000001d9c       0x58 C:/Users/test/Documents/EPFL/MA1/Embedded/Lab4/lab_4_V2/sw/lab4_cam1_bsp/\libhal_bsp.a(alt_malloc_lock.o)
 .debug_frame   0x0000000000001df4       0x84 C:/Users/test/Documents/EPFL/MA1/Embedded/Lab4/lab_4_V2/sw/lab4_cam1_bsp/\libhal_bsp.a(alt_open.o)
 .debug_frame   0x0000000000001e78       0x60 C:/Users/test/Documents/EPFL/MA1/Embedded/Lab4/lab_4_V2/sw/lab4_cam1_bsp/\libhal_bsp.a(alt_read.o)
 .debug_frame   0x0000000000001ed8       0x34 C:/Users/test/Documents/EPFL/MA1/Embedded/Lab4/lab_4_V2/sw/lab4_cam1_bsp/\libhal_bsp.a(alt_release_fd.o)
 .debug_frame   0x0000000000001f0c       0x34 C:/Users/test/Documents/EPFL/MA1/Embedded/Lab4/lab_4_V2/sw/lab4_cam1_bsp/\libhal_bsp.a(alt_sbrk.o)
 .debug_frame   0x0000000000001f40       0x38 C:/Users/test/Documents/EPFL/MA1/Embedded/Lab4/lab_4_V2/sw/lab4_cam1_bsp/\libhal_bsp.a(alt_usleep.o)
 .debug_frame   0x0000000000001f78       0x60 C:/Users/test/Documents/EPFL/MA1/Embedded/Lab4/lab_4_V2/sw/lab4_cam1_bsp/\libhal_bsp.a(alt_write.o)
 .debug_frame   0x0000000000001fd8       0x88 C:/Users/test/Documents/EPFL/MA1/Embedded/Lab4/lab_4_V2/sw/lab4_cam1_bsp/\libhal_bsp.a(alt_sys_init.o)
 .debug_frame   0x0000000000002060       0xb0 C:/Users/test/Documents/EPFL/MA1/Embedded/Lab4/lab_4_V2/sw/lab4_cam1_bsp/\libhal_bsp.a(altera_avalon_jtag_uart_fd.o)
 .debug_frame   0x0000000000002110       0xa4 C:/Users/test/Documents/EPFL/MA1/Embedded/Lab4/lab_4_V2/sw/lab4_cam1_bsp/\libhal_bsp.a(altera_avalon_jtag_uart_init.o)
 .debug_frame   0x00000000000021b4       0x34 C:/Users/test/Documents/EPFL/MA1/Embedded/Lab4/lab_4_V2/sw/lab4_cam1_bsp/\libhal_bsp.a(altera_avalon_jtag_uart_ioctl.o)
 .debug_frame   0x00000000000021e8       0x38 C:/Users/test/Documents/EPFL/MA1/Embedded/Lab4/lab_4_V2/sw/lab4_cam1_bsp/\libhal_bsp.a(altera_avalon_jtag_uart_read.o)
 .debug_frame   0x0000000000002220       0x38 C:/Users/test/Documents/EPFL/MA1/Embedded/Lab4/lab_4_V2/sw/lab4_cam1_bsp/\libhal_bsp.a(altera_avalon_jtag_uart_write.o)
 .debug_frame   0x0000000000002258       0xe8 C:/Users/test/Documents/EPFL/MA1/Embedded/Lab4/lab_4_V2/sw/lab4_cam1_bsp/\libhal_bsp.a(altera_hostfs.o)
 .debug_frame   0x0000000000002340       0x34 C:/Users/test/Documents/EPFL/MA1/Embedded/Lab4/lab_4_V2/sw/lab4_cam1_bsp/\libhal_bsp.a(alt_alarm_start.o)
 .debug_frame   0x0000000000002374       0x38 C:/Users/test/Documents/EPFL/MA1/Embedded/Lab4/lab_4_V2/sw/lab4_cam1_bsp/\libhal_bsp.a(alt_busy_sleep.o)
 .debug_frame   0x00000000000023ac       0x34 C:/Users/test/Documents/EPFL/MA1/Embedded/Lab4/lab_4_V2/sw/lab4_cam1_bsp/\libhal_bsp.a(alt_dcache_flush_all.o)
 .debug_frame   0x00000000000023e0       0x60 C:/Users/test/Documents/EPFL/MA1/Embedded/Lab4/lab_4_V2/sw/lab4_cam1_bsp/\libhal_bsp.a(alt_dev_llist_insert.o)
 .debug_frame   0x0000000000002440       0x38 C:/Users/test/Documents/EPFL/MA1/Embedded/Lab4/lab_4_V2/sw/lab4_cam1_bsp/\libhal_bsp.a(alt_do_ctors.o)
 .debug_frame   0x0000000000002478       0x38 C:/Users/test/Documents/EPFL/MA1/Embedded/Lab4/lab_4_V2/sw/lab4_cam1_bsp/\libhal_bsp.a(alt_do_dtors.o)
 .debug_frame   0x00000000000024b0       0x38 C:/Users/test/Documents/EPFL/MA1/Embedded/Lab4/lab_4_V2/sw/lab4_cam1_bsp/\libhal_bsp.a(alt_find_dev.o)
 .debug_frame   0x00000000000024e8       0x38 C:/Users/test/Documents/EPFL/MA1/Embedded/Lab4/lab_4_V2/sw/lab4_cam1_bsp/\libhal_bsp.a(alt_find_file.o)
 .debug_frame   0x0000000000002520       0x34 C:/Users/test/Documents/EPFL/MA1/Embedded/Lab4/lab_4_V2/sw/lab4_cam1_bsp/\libhal_bsp.a(alt_fs_reg.o)
 .debug_frame   0x0000000000002554       0x34 C:/Users/test/Documents/EPFL/MA1/Embedded/Lab4/lab_4_V2/sw/lab4_cam1_bsp/\libhal_bsp.a(alt_get_fd.o)
 .debug_frame   0x0000000000002588       0x38 C:/Users/test/Documents/EPFL/MA1/Embedded/Lab4/lab_4_V2/sw/lab4_cam1_bsp/\libhal_bsp.a(alt_icache_flush_all.o)
 .debug_frame   0x00000000000025c0       0xa4 C:/Users/test/Documents/EPFL/MA1/Embedded/Lab4/lab_4_V2/sw/lab4_cam1_bsp/\libhal_bsp.a(alt_iic.o)
 .debug_frame   0x0000000000002664       0x38 C:/Users/test/Documents/EPFL/MA1/Embedded/Lab4/lab_4_V2/sw/lab4_cam1_bsp/\libhal_bsp.a(alt_iic_isr_register.o)
 .debug_frame   0x000000000000269c       0x60 C:/Users/test/Documents/EPFL/MA1/Embedded/Lab4/lab_4_V2/sw/lab4_cam1_bsp/\libhal_bsp.a(alt_io_redirect.o)
 .debug_frame   0x00000000000026fc       0x38 C:/Users/test/Documents/EPFL/MA1/Embedded/Lab4/lab_4_V2/sw/lab4_cam1_bsp/\libhal_bsp.a(alt_irq_handler.o)
 .debug_frame   0x0000000000002734       0x5c C:/Users/test/Documents/EPFL/MA1/Embedded/Lab4/lab_4_V2/sw/lab4_cam1_bsp/\libhal_bsp.a(alt_tick.o)
 .debug_frame   0x0000000000002790       0x34 C:/Users/test/Documents/EPFL/MA1/Embedded/Lab4/lab_4_V2/sw/lab4_cam1_bsp/\libhal_bsp.a(altera_nios2_gen2_irq.o)
 .debug_frame   0x00000000000027c4       0x34 C:/Users/test/Documents/EPFL/MA1/Embedded/Lab4/lab_4_V2/sw/lab4_cam1_bsp/\libhal_bsp.a(alt_icache_flush.o)
 .debug_frame   0x00000000000027f8       0x5c C:/Users/test/Documents/EPFL/MA1/Embedded/Lab4/lab_4_V2/sw/lab4_cam1_bsp/\libhal_bsp.a(alt_instruction_exception_entry.o)
 .debug_frame   0x0000000000002854       0x20 x:/quartus/18.1/nios2eds/bin/gnu/h-x86_64-mingw32/bin/../lib/gcc/nios2-elf/5.3.0/../../../../../H-x86_64-mingw32/nios2-elf/lib\libc.a(lib_a-atexit.o)
 .debug_frame   0x0000000000002874       0x28 x:/quartus/18.1/nios2eds/bin/gnu/h-x86_64-mingw32/bin/../lib/gcc/nios2-elf/5.3.0/../../../../../H-x86_64-mingw32/nios2-elf/lib\libc.a(lib_a-exit.o)
 .debug_frame   0x000000000000289c       0x20 x:/quartus/18.1/nios2eds/bin/gnu/h-x86_64-mingw32/bin/../lib/gcc/nios2-elf/5.3.0/../../../../../H-x86_64-mingw32/nios2-elf/lib\libc.a(lib_a-memcmp.o)
 .debug_frame   0x00000000000028bc       0x38 x:/quartus/18.1/nios2eds/bin/gnu/h-x86_64-mingw32/bin/../lib/gcc/nios2-elf/5.3.0/../../../../../H-x86_64-mingw32/nios2-elf/lib\libc.a(lib_a-__atexit.o)
 .debug_frame   0x00000000000028f4       0x54 x:/quartus/18.1/nios2eds/bin/gnu/h-x86_64-mingw32/bin/../lib/gcc/nios2-elf/5.3.0/../../../../../H-x86_64-mingw32/nios2-elf/lib\libc.a(lib_a-__call_atexit.o)
 .debug_frame   0x0000000000002948       0x2c C:/Users/test/Documents/EPFL/MA1/Embedded/Lab4/lab_4_V2/sw/lab4_cam1_bsp/\libhal_bsp.a(alt_exit.o)

.debug_str      0x0000000000000000     0x3f71
 *(.debug_str)
 .debug_str     0x0000000000000000      0x3f2 obj/default/cmos_sensor_output_generator/cmos_sensor_output_generator.o
                                        0x442 (size before relaxing)
 .debug_str     0x00000000000003f2      0x3d7 obj/default/hello_world.o
                                        0x5ae (size before relaxing)
 .debug_str     0x00000000000007c9       0xc7 obj/default/i2c/i2c.o
                                        0x24c (size before relaxing)
 .debug_str     0x0000000000000890      0x16d x:/quartus/18.1/nios2eds/bin/gnu/h-x86_64-mingw32/bin/../lib/gcc/nios2-elf/5.3.0\libgcc.a(lib2-divmod.o)
                                        0x1b8 (size before relaxing)
 .debug_str     0x00000000000009fd      0x183 x:/quartus/18.1/nios2eds/bin/gnu/h-x86_64-mingw32/bin/../lib/gcc/nios2-elf/5.3.0/../../../../../H-x86_64-mingw32/nios2-elf/lib\libc.a(lib_a-fclose.o)
                                        0x5e8 (size before relaxing)
 .debug_str     0x0000000000000b80       0x7b x:/quartus/18.1/nios2eds/bin/gnu/h-x86_64-mingw32/bin/../lib/gcc/nios2-elf/5.3.0/../../../../../H-x86_64-mingw32/nios2-elf/lib\libc.a(lib_a-fflush.o)
                                        0x5fb (size before relaxing)
 .debug_str     0x0000000000000bfb       0xfd x:/quartus/18.1/nios2eds/bin/gnu/h-x86_64-mingw32/bin/../lib/gcc/nios2-elf/5.3.0/../../../../../H-x86_64-mingw32/nios2-elf/lib\libc.a(lib_a-findfp.o)
                                        0x6b1 (size before relaxing)
 .debug_str     0x0000000000000cf8       0x68 x:/quartus/18.1/nios2eds/bin/gnu/h-x86_64-mingw32/bin/../lib/gcc/nios2-elf/5.3.0/../../../../../H-x86_64-mingw32/nios2-elf/lib\libc.a(lib_a-fopen.o)
                                        0x5ec (size before relaxing)
 .debug_str     0x0000000000000d60       0x82 x:/quartus/18.1/nios2eds/bin/gnu/h-x86_64-mingw32/bin/../lib/gcc/nios2-elf/5.3.0/../../../../../H-x86_64-mingw32/nios2-elf/lib\libc.a(lib_a-fprintf.o)
                                        0x5c6 (size before relaxing)
 .debug_str     0x0000000000000de2       0x4f x:/quartus/18.1/nios2eds/bin/gnu/h-x86_64-mingw32/bin/../lib/gcc/nios2-elf/5.3.0/../../../../../H-x86_64-mingw32/nios2-elf/lib\libc.a(lib_a-fputc.o)
                                        0x5c1 (size before relaxing)
 .debug_str     0x0000000000000e31      0x1fc x:/quartus/18.1/nios2eds/bin/gnu/h-x86_64-mingw32/bin/../lib/gcc/nios2-elf/5.3.0/../../../../../H-x86_64-mingw32/nios2-elf/lib\libc.a(lib_a-freer.o)
                                        0x6ea (size before relaxing)
 .debug_str     0x000000000000102d       0x4f x:/quartus/18.1/nios2eds/bin/gnu/h-x86_64-mingw32/bin/../lib/gcc/nios2-elf/5.3.0/../../../../../H-x86_64-mingw32/nios2-elf/lib\libc.a(lib_a-fseek.o)
                                        0x5a7 (size before relaxing)
 .debug_str     0x000000000000107c       0xd9 x:/quartus/18.1/nios2eds/bin/gnu/h-x86_64-mingw32/bin/../lib/gcc/nios2-elf/5.3.0/../../../../../H-x86_64-mingw32/nios2-elf/lib\libc.a(lib_a-fseeko.o)
                                        0x702 (size before relaxing)
 .debug_str     0x0000000000001155       0xc2 x:/quartus/18.1/nios2eds/bin/gnu/h-x86_64-mingw32/bin/../lib/gcc/nios2-elf/5.3.0/../../../../../H-x86_64-mingw32/nios2-elf/lib\libc.a(lib_a-fstatr.o)
                                        0x671 (size before relaxing)
 .debug_str     0x0000000000001217       0x47 x:/quartus/18.1/nios2eds/bin/gnu/h-x86_64-mingw32/bin/../lib/gcc/nios2-elf/5.3.0/../../../../../H-x86_64-mingw32/nios2-elf/lib\libc.a(lib_a-fwalk.o)
                                        0x5a0 (size before relaxing)
 .debug_str     0x000000000000125e       0x45 x:/quartus/18.1/nios2eds/bin/gnu/h-x86_64-mingw32/bin/../lib/gcc/nios2-elf/5.3.0/../../../../../H-x86_64-mingw32/nios2-elf/lib\libc.a(lib_a-impure.o)
                                        0x59b (size before relaxing)
 .debug_str     0x00000000000012a3       0x3c x:/quartus/18.1/nios2eds/bin/gnu/h-x86_64-mingw32/bin/../lib/gcc/nios2-elf/5.3.0/../../../../../H-x86_64-mingw32/nios2-elf/lib\libc.a(lib_a-int_errno.o)
                                        0x1c3 (size before relaxing)
 .debug_str     0x00000000000012df       0x4f x:/quartus/18.1/nios2eds/bin/gnu/h-x86_64-mingw32/bin/../lib/gcc/nios2-elf/5.3.0/../../../../../H-x86_64-mingw32/nios2-elf/lib\libc.a(lib_a-makebuf.o)
                                        0x69d (size before relaxing)
 .debug_str     0x000000000000132e       0xe5 x:/quartus/18.1/nios2eds/bin/gnu/h-x86_64-mingw32/bin/../lib/gcc/nios2-elf/5.3.0/../../../../../H-x86_64-mingw32/nios2-elf/lib\libc.a(lib_a-mallocr.o)
                                        0x7a0 (size before relaxing)
 .debug_str     0x0000000000001413       0xd2 x:/quartus/18.1/nios2eds/bin/gnu/h-x86_64-mingw32/bin/../lib/gcc/nios2-elf/5.3.0/../../../../../H-x86_64-mingw32/nios2-elf/lib\libc.a(lib_a-memset.o)
                                        0x1de (size before relaxing)
 .debug_str     0x00000000000014e5       0x38 x:/quartus/18.1/nios2eds/bin/gnu/h-x86_64-mingw32/bin/../lib/gcc/nios2-elf/5.3.0/../../../../../H-x86_64-mingw32/nios2-elf/lib\libc.a(lib_a-openr.o)
                                        0x592 (size before relaxing)
 .debug_str     0x000000000000151d       0x5a x:/quartus/18.1/nios2eds/bin/gnu/h-x86_64-mingw32/bin/../lib/gcc/nios2-elf/5.3.0/../../../../../H-x86_64-mingw32/nios2-elf/lib\libc.a(lib_a-printf.o)
                                        0x5e1 (size before relaxing)
 .debug_str     0x0000000000001577       0x41 x:/quartus/18.1/nios2eds/bin/gnu/h-x86_64-mingw32/bin/../lib/gcc/nios2-elf/5.3.0/../../../../../H-x86_64-mingw32/nios2-elf/lib\libc.a(lib_a-putc.o)
                                        0x5bb (size before relaxing)
 .debug_str     0x00000000000015b8       0x8d x:/quartus/18.1/nios2eds/bin/gnu/h-x86_64-mingw32/bin/../lib/gcc/nios2-elf/5.3.0/../../../../../H-x86_64-mingw32/nios2-elf/lib\libc.a(lib_a-puts.o)
                                        0x602 (size before relaxing)
 .debug_str     0x0000000000001645       0x4b x:/quartus/18.1/nios2eds/bin/gnu/h-x86_64-mingw32/bin/../lib/gcc/nios2-elf/5.3.0/../../../../../H-x86_64-mingw32/nios2-elf/lib\libc.a(lib_a-refill.o)
                                        0x5f6 (size before relaxing)
 .debug_str     0x0000000000001690       0x4a x:/quartus/18.1/nios2eds/bin/gnu/h-x86_64-mingw32/bin/../lib/gcc/nios2-elf/5.3.0/../../../../../H-x86_64-mingw32/nios2-elf/lib\libc.a(lib_a-rewind.o)
                                        0x59b (size before relaxing)
 .debug_str     0x00000000000016da       0x4c x:/quartus/18.1/nios2eds/bin/gnu/h-x86_64-mingw32/bin/../lib/gcc/nios2-elf/5.3.0/../../../../../H-x86_64-mingw32/nios2-elf/lib\libc.a(lib_a-sbrkr.o)
                                        0x591 (size before relaxing)
 .debug_str     0x0000000000001726       0x91 x:/quartus/18.1/nios2eds/bin/gnu/h-x86_64-mingw32/bin/../lib/gcc/nios2-elf/5.3.0/../../../../../H-x86_64-mingw32/nios2-elf/lib\libc.a(lib_a-stdio.o)
                                        0x5ef (size before relaxing)
 .debug_str     0x00000000000017b7       0x3a x:/quartus/18.1/nios2eds/bin/gnu/h-x86_64-mingw32/bin/../lib/gcc/nios2-elf/5.3.0/../../../../../H-x86_64-mingw32/nios2-elf/lib\libc.a(lib_a-strlen.o)
                                        0x1dd (size before relaxing)
 .debug_str     0x00000000000017f1      0x1fb x:/quartus/18.1/nios2eds/bin/gnu/h-x86_64-mingw32/bin/../lib/gcc/nios2-elf/5.3.0/../../../../../H-x86_64-mingw32/nios2-elf/lib\libc.a(lib_a-vfprintf.o)
                                        0x823 (size before relaxing)
 .debug_str     0x00000000000019ec       0x3f x:/quartus/18.1/nios2eds/bin/gnu/h-x86_64-mingw32/bin/../lib/gcc/nios2-elf/5.3.0/../../../../../H-x86_64-mingw32/nios2-elf/lib\libc.a(lib_a-wbuf.o)
                                        0x5bf (size before relaxing)
 .debug_str     0x0000000000001a2b       0x39 x:/quartus/18.1/nios2eds/bin/gnu/h-x86_64-mingw32/bin/../lib/gcc/nios2-elf/5.3.0/../../../../../H-x86_64-mingw32/nios2-elf/lib\libc.a(lib_a-writer.o)
                                        0x595 (size before relaxing)
 .debug_str     0x0000000000001a64       0x39 x:/quartus/18.1/nios2eds/bin/gnu/h-x86_64-mingw32/bin/../lib/gcc/nios2-elf/5.3.0/../../../../../H-x86_64-mingw32/nios2-elf/lib\libc.a(lib_a-wsetup.o)
                                        0x5ba (size before relaxing)
 .debug_str     0x0000000000001a9d       0x39 x:/quartus/18.1/nios2eds/bin/gnu/h-x86_64-mingw32/bin/../lib/gcc/nios2-elf/5.3.0/../../../../../H-x86_64-mingw32/nios2-elf/lib\libc.a(closer.o)
                                        0x585 (size before relaxing)
 .debug_str     0x0000000000001ad6      0x15d x:/quartus/18.1/nios2eds/bin/gnu/h-x86_64-mingw32/bin/../lib/gcc/nios2-elf/5.3.0/../../../../../H-x86_64-mingw32/nios2-elf/lib\libc.a(lib_a-dtoa.o)
                                        0x6da (size before relaxing)
 .debug_str     0x0000000000001c33       0x3d x:/quartus/18.1/nios2eds/bin/gnu/h-x86_64-mingw32/bin/../lib/gcc/nios2-elf/5.3.0/../../../../../H-x86_64-mingw32/nios2-elf/lib\libc.a(lib_a-flags.o)
                                        0x582 (size before relaxing)
 .debug_str     0x0000000000001c70       0x6b x:/quartus/18.1/nios2eds/bin/gnu/h-x86_64-mingw32/bin/../lib/gcc/nios2-elf/5.3.0/../../../../../H-x86_64-mingw32/nios2-elf/lib\libc.a(lib_a-fvwrite.o)
                                        0x62d (size before relaxing)
 .debug_str     0x0000000000001cdb       0x41 x:/quartus/18.1/nios2eds/bin/gnu/h-x86_64-mingw32/bin/../lib/gcc/nios2-elf/5.3.0/../../../../../H-x86_64-mingw32/nios2-elf/lib\libc.a(lib_a-isattyr.o)
                                        0x588 (size before relaxing)
 .debug_str     0x0000000000001d1c      0x292 x:/quartus/18.1/nios2eds/bin/gnu/h-x86_64-mingw32/bin/../lib/gcc/nios2-elf/5.3.0/../../../../../H-x86_64-mingw32/nios2-elf/lib\libc.a(lib_a-locale.o)
                                        0x7f8 (size before relaxing)
 .debug_str     0x0000000000001fae       0x3f x:/quartus/18.1/nios2eds/bin/gnu/h-x86_64-mingw32/bin/../lib/gcc/nios2-elf/5.3.0/../../../../../H-x86_64-mingw32/nios2-elf/lib\libc.a(lib_a-lseekr.o)
                                        0x58c (size before relaxing)
 .debug_str     0x0000000000001fed       0x48 x:/quartus/18.1/nios2eds/bin/gnu/h-x86_64-mingw32/bin/../lib/gcc/nios2-elf/5.3.0/../../../../../H-x86_64-mingw32/nios2-elf/lib\libc.a(lib_a-memchr.o)
                                        0x1e4 (size before relaxing)
 .debug_str     0x0000000000002035       0x61 x:/quartus/18.1/nios2eds/bin/gnu/h-x86_64-mingw32/bin/../lib/gcc/nios2-elf/5.3.0/../../../../../H-x86_64-mingw32/nios2-elf/lib\libc.a(lib_a-memcpy.o)
                                        0x1f1 (size before relaxing)
 .debug_str     0x0000000000002096       0x44 x:/quartus/18.1/nios2eds/bin/gnu/h-x86_64-mingw32/bin/../lib/gcc/nios2-elf/5.3.0/../../../../../H-x86_64-mingw32/nios2-elf/lib\libc.a(lib_a-memmove.o)
                                        0x1fd (size before relaxing)
 .debug_str     0x00000000000020da       0xa4 x:/quartus/18.1/nios2eds/bin/gnu/h-x86_64-mingw32/bin/../lib/gcc/nios2-elf/5.3.0/../../../../../H-x86_64-mingw32/nios2-elf/lib\libc.a(lib_a-mprec.o)
                                        0x694 (size before relaxing)
 .debug_str     0x000000000000217e       0x38 x:/quartus/18.1/nios2eds/bin/gnu/h-x86_64-mingw32/bin/../lib/gcc/nios2-elf/5.3.0/../../../../../H-x86_64-mingw32/nios2-elf/lib\libc.a(lib_a-readr.o)
                                        0x592 (size before relaxing)
 .debug_str     0x00000000000021b6       0x4e x:/quartus/18.1/nios2eds/bin/gnu/h-x86_64-mingw32/bin/../lib/gcc/nios2-elf/5.3.0/../../../../../H-x86_64-mingw32/nios2-elf/lib\libc.a(lib_a-reallocr.o)
                                        0x67c (size before relaxing)
 .debug_str     0x0000000000002204       0xc4 x:/quartus/18.1/nios2eds/bin/gnu/h-x86_64-mingw32/bin/../lib/gcc/nios2-elf/5.3.0/../../../../../H-x86_64-mingw32/nios2-elf/lib\libc.a(lib_a-s_fpclassify.o)
                                        0x1e8 (size before relaxing)
 .debug_str     0x00000000000022c8       0x3a x:/quartus/18.1/nios2eds/bin/gnu/h-x86_64-mingw32/bin/../lib/gcc/nios2-elf/5.3.0/../../../../../H-x86_64-mingw32/nios2-elf/lib\libc.a(lib_a-strcmp.o)
                                        0x1c3 (size before relaxing)
 .debug_str     0x0000000000002302       0x3f x:/quartus/18.1/nios2eds/bin/gnu/h-x86_64-mingw32/bin/../lib/gcc/nios2-elf/5.3.0/../../../../../H-x86_64-mingw32/nios2-elf/lib\libc.a(lib_a-vfiprintf.o)
                                        0x777 (size before relaxing)
 .debug_str     0x0000000000002341        0xf x:/quartus/18.1/nios2eds/bin/gnu/h-x86_64-mingw32/bin/../lib/gcc/nios2-elf/5.3.0/../../../../../H-x86_64-mingw32/nios2-elf/lib\libc.a(lib_a-callocr.o)
                                        0x5d4 (size before relaxing)
 .debug_str     0x0000000000002350       0x4d x:/quartus/18.1/nios2eds/bin/gnu/h-x86_64-mingw32/bin/../lib/gcc/nios2-elf/5.3.0/../../../../../H-x86_64-mingw32/nios2-elf/lib\libc.a(lib_a-fputwc.o)
                                        0x5ec (size before relaxing)
 .debug_str     0x000000000000239d       0x53 x:/quartus/18.1/nios2eds/bin/gnu/h-x86_64-mingw32/bin/../lib/gcc/nios2-elf/5.3.0/../../../../../H-x86_64-mingw32/nios2-elf/lib\libc.a(lib_a-wcrtomb.o)
                                        0x5d2 (size before relaxing)
 .debug_str     0x00000000000023f0       0x5c x:/quartus/18.1/nios2eds/bin/gnu/h-x86_64-mingw32/bin/../lib/gcc/nios2-elf/5.3.0/../../../../../H-x86_64-mingw32/nios2-elf/lib\libc.a(lib_a-wctomb_r.o)
                                        0x5db (size before relaxing)
 .debug_str     0x000000000000244c      0x16c x:/quartus/18.1/nios2eds/bin/gnu/h-x86_64-mingw32/bin/../lib/gcc/nios2-elf/5.3.0\libgcc.a(_udivdi3.o)
                                        0x282 (size before relaxing)
 .debug_str     0x00000000000025b8        0xa x:/quartus/18.1/nios2eds/bin/gnu/h-x86_64-mingw32/bin/../lib/gcc/nios2-elf/5.3.0\libgcc.a(_umoddi3.o)
                                        0x282 (size before relaxing)
 .debug_str     0x00000000000025c2      0x116 x:/quartus/18.1/nios2eds/bin/gnu/h-x86_64-mingw32/bin/../lib/gcc/nios2-elf/5.3.0\libgcc.a(adddf3.o)
                                        0x28f (size before relaxing)
 .debug_str     0x00000000000026d8      0x123 x:/quartus/18.1/nios2eds/bin/gnu/h-x86_64-mingw32/bin/../lib/gcc/nios2-elf/5.3.0\libgcc.a(divdf3.o)
                                        0x347 (size before relaxing)
 .debug_str     0x00000000000027fb       0x34 x:/quartus/18.1/nios2eds/bin/gnu/h-x86_64-mingw32/bin/../lib/gcc/nios2-elf/5.3.0\libgcc.a(eqdf2.o)
                                        0x1f5 (size before relaxing)
 .debug_str     0x000000000000282f       0x58 x:/quartus/18.1/nios2eds/bin/gnu/h-x86_64-mingw32/bin/../lib/gcc/nios2-elf/5.3.0\libgcc.a(gedf2.o)
                                        0x219 (size before relaxing)
 .debug_str     0x0000000000002887       0x34 x:/quartus/18.1/nios2eds/bin/gnu/h-x86_64-mingw32/bin/../lib/gcc/nios2-elf/5.3.0\libgcc.a(ledf2.o)
                                        0x219 (size before relaxing)
 .debug_str     0x00000000000028bb      0x15b x:/quartus/18.1/nios2eds/bin/gnu/h-x86_64-mingw32/bin/../lib/gcc/nios2-elf/5.3.0\libgcc.a(muldf3.o)
                                        0x3a8 (size before relaxing)
 .debug_str     0x0000000000002a16       0x36 x:/quartus/18.1/nios2eds/bin/gnu/h-x86_64-mingw32/bin/../lib/gcc/nios2-elf/5.3.0\libgcc.a(subdf3.o)
                                        0x28f (size before relaxing)
 .debug_str     0x0000000000002a4c       0x4b x:/quartus/18.1/nios2eds/bin/gnu/h-x86_64-mingw32/bin/../lib/gcc/nios2-elf/5.3.0\libgcc.a(fixdfsi.o)
                                        0x211 (size before relaxing)
 .debug_str     0x0000000000002a97       0x69 x:/quartus/18.1/nios2eds/bin/gnu/h-x86_64-mingw32/bin/../lib/gcc/nios2-elf/5.3.0\libgcc.a(floatsidf.o)
                                        0x228 (size before relaxing)
 .debug_str     0x0000000000002b00       0x40 x:/quartus/18.1/nios2eds/bin/gnu/h-x86_64-mingw32/bin/../lib/gcc/nios2-elf/5.3.0\libgcc.a(floatunsidf.o)
                                        0x225 (size before relaxing)
 .debug_str     0x0000000000002b40      0x1c9 x:/quartus/18.1/nios2eds/bin/gnu/h-x86_64-mingw32/bin/../lib/gcc/nios2-elf/5.3.0\libgcc.a(_clz.o)
 .debug_str     0x0000000000002b40        0x9 x:/quartus/18.1/nios2eds/bin/gnu/h-x86_64-mingw32/bin/../lib/gcc/nios2-elf/5.3.0\libgcc.a(_clzsi2.o)
                                        0x1e6 (size before relaxing)
 .debug_str     0x0000000000002b49       0xe9 C:/Users/test/Documents/EPFL/MA1/Embedded/Lab4/lab_4_V2/sw/lab4_cam1_bsp/\libhal_bsp.a(alt_close.o)
                                        0x217 (size before relaxing)
 .debug_str     0x0000000000002c32       0x50 C:/Users/test/Documents/EPFL/MA1/Embedded/Lab4/lab_4_V2/sw/lab4_cam1_bsp/\libhal_bsp.a(alt_dev.o)
                                        0x311 (size before relaxing)
 .debug_str     0x0000000000002c82       0x14 C:/Users/test/Documents/EPFL/MA1/Embedded/Lab4/lab_4_V2/sw/lab4_cam1_bsp/\libhal_bsp.a(alt_errno.o)
                                        0x151 (size before relaxing)
 .debug_str     0x0000000000002c96       0x14 C:/Users/test/Documents/EPFL/MA1/Embedded/Lab4/lab_4_V2/sw/lab4_cam1_bsp/\libhal_bsp.a(alt_fstat.o)
                                        0x2f8 (size before relaxing)
 .debug_str     0x0000000000002caa       0x15 C:/Users/test/Documents/EPFL/MA1/Embedded/Lab4/lab_4_V2/sw/lab4_cam1_bsp/\libhal_bsp.a(alt_isatty.o)
                                        0x300 (size before relaxing)
 .debug_str     0x0000000000002cbf       0xf1 C:/Users/test/Documents/EPFL/MA1/Embedded/Lab4/lab_4_V2/sw/lab4_cam1_bsp/\libhal_bsp.a(alt_load.o)
                                        0x21e (size before relaxing)
 .debug_str     0x0000000000002db0       0x14 C:/Users/test/Documents/EPFL/MA1/Embedded/Lab4/lab_4_V2/sw/lab4_cam1_bsp/\libhal_bsp.a(alt_lseek.o)
                                        0x21d (size before relaxing)
 .debug_str     0x0000000000002dc4       0x44 C:/Users/test/Documents/EPFL/MA1/Embedded/Lab4/lab_4_V2/sw/lab4_cam1_bsp/\libhal_bsp.a(alt_main.o)
                                        0x1a9 (size before relaxing)
 .debug_str     0x0000000000002e08       0x1a C:/Users/test/Documents/EPFL/MA1/Embedded/Lab4/lab_4_V2/sw/lab4_cam1_bsp/\libhal_bsp.a(alt_malloc_lock.o)
                                        0x51b (size before relaxing)
 .debug_str     0x0000000000002e22       0x30 C:/Users/test/Documents/EPFL/MA1/Embedded/Lab4/lab_4_V2/sw/lab4_cam1_bsp/\libhal_bsp.a(alt_open.o)
                                        0x257 (size before relaxing)
 .debug_str     0x0000000000002e52       0x13 C:/Users/test/Documents/EPFL/MA1/Embedded/Lab4/lab_4_V2/sw/lab4_cam1_bsp/\libhal_bsp.a(alt_read.o)
                                        0x303 (size before relaxing)
 .debug_str     0x0000000000002e65       0x28 C:/Users/test/Documents/EPFL/MA1/Embedded/Lab4/lab_4_V2/sw/lab4_cam1_bsp/\libhal_bsp.a(alt_release_fd.o)
                                        0x1df (size before relaxing)
 .debug_str     0x0000000000002e8d       0x98 C:/Users/test/Documents/EPFL/MA1/Embedded/Lab4/lab_4_V2/sw/lab4_cam1_bsp/\libhal_bsp.a(alt_sbrk.o)
                                        0x1e0 (size before relaxing)
 .debug_str     0x0000000000002f25       0x20 C:/Users/test/Documents/EPFL/MA1/Embedded/Lab4/lab_4_V2/sw/lab4_cam1_bsp/\libhal_bsp.a(alt_usleep.o)
                                        0x154 (size before relaxing)
 .debug_str     0x0000000000002f45       0x14 C:/Users/test/Documents/EPFL/MA1/Embedded/Lab4/lab_4_V2/sw/lab4_cam1_bsp/\libhal_bsp.a(alt_write.o)
                                        0x304 (size before relaxing)
 .debug_str     0x0000000000002f59      0x17d C:/Users/test/Documents/EPFL/MA1/Embedded/Lab4/lab_4_V2/sw/lab4_cam1_bsp/\libhal_bsp.a(alt_sys_init.o)
                                        0x393 (size before relaxing)
 .debug_str     0x00000000000030d6       0xac C:/Users/test/Documents/EPFL/MA1/Embedded/Lab4/lab_4_V2/sw/lab4_cam1_bsp/\libhal_bsp.a(altera_avalon_jtag_uart_fd.o)
                                        0x3b0 (size before relaxing)
 .debug_str     0x0000000000003182       0xc9 C:/Users/test/Documents/EPFL/MA1/Embedded/Lab4/lab_4_V2/sw/lab4_cam1_bsp/\libhal_bsp.a(altera_avalon_jtag_uart_init.o)
                                        0x344 (size before relaxing)
 .debug_str     0x000000000000324b       0x4a C:/Users/test/Documents/EPFL/MA1/Embedded/Lab4/lab_4_V2/sw/lab4_cam1_bsp/\libhal_bsp.a(altera_avalon_jtag_uart_ioctl.o)
                                        0x29f (size before relaxing)
 .debug_str     0x0000000000003295       0x48 C:/Users/test/Documents/EPFL/MA1/Embedded/Lab4/lab_4_V2/sw/lab4_cam1_bsp/\libhal_bsp.a(altera_avalon_jtag_uart_read.o)
                                        0x2f4 (size before relaxing)
 .debug_str     0x00000000000032dd       0x4a C:/Users/test/Documents/EPFL/MA1/Embedded/Lab4/lab_4_V2/sw/lab4_cam1_bsp/\libhal_bsp.a(altera_avalon_jtag_uart_write.o)
                                        0x2f5 (size before relaxing)
 .debug_str     0x0000000000003327      0x12e C:/Users/test/Documents/EPFL/MA1/Embedded/Lab4/lab_4_V2/sw/lab4_cam1_bsp/\libhal_bsp.a(altera_hostfs.o)
                                        0x446 (size before relaxing)
 .debug_str     0x0000000000003455       0x59 C:/Users/test/Documents/EPFL/MA1/Embedded/Lab4/lab_4_V2/sw/lab4_cam1_bsp/\libhal_bsp.a(alt_alarm_start.o)
                                        0x28a (size before relaxing)
 .debug_str     0x00000000000034ae       0x42 C:/Users/test/Documents/EPFL/MA1/Embedded/Lab4/lab_4_V2/sw/lab4_cam1_bsp/\libhal_bsp.a(alt_busy_sleep.o)
                                        0x177 (size before relaxing)
 .debug_str     0x00000000000034f0       0x34 C:/Users/test/Documents/EPFL/MA1/Embedded/Lab4/lab_4_V2/sw/lab4_cam1_bsp/\libhal_bsp.a(alt_dcache_flush_all.o)
                                        0x161 (size before relaxing)
 .debug_str     0x0000000000003524       0x34 C:/Users/test/Documents/EPFL/MA1/Embedded/Lab4/lab_4_V2/sw/lab4_cam1_bsp/\libhal_bsp.a(alt_dev_llist_insert.o)
                                        0x1d8 (size before relaxing)
 .debug_str     0x0000000000003558       0x48 C:/Users/test/Documents/EPFL/MA1/Embedded/Lab4/lab_4_V2/sw/lab4_cam1_bsp/\libhal_bsp.a(alt_do_ctors.o)
                                         0xdc (size before relaxing)
 .debug_str     0x00000000000035a0       0x4c C:/Users/test/Documents/EPFL/MA1/Embedded/Lab4/lab_4_V2/sw/lab4_cam1_bsp/\libhal_bsp.a(alt_do_dtors.o)
                                         0xdb (size before relaxing)
 .debug_str     0x00000000000035ec       0x24 C:/Users/test/Documents/EPFL/MA1/Embedded/Lab4/lab_4_V2/sw/lab4_cam1_bsp/\libhal_bsp.a(alt_find_dev.o)
                                        0x1f8 (size before relaxing)
 .debug_str     0x0000000000003610       0x26 C:/Users/test/Documents/EPFL/MA1/Embedded/Lab4/lab_4_V2/sw/lab4_cam1_bsp/\libhal_bsp.a(alt_find_file.o)
                                        0x206 (size before relaxing)
 .debug_str     0x0000000000003636       0x20 C:/Users/test/Documents/EPFL/MA1/Embedded/Lab4/lab_4_V2/sw/lab4_cam1_bsp/\libhal_bsp.a(alt_fs_reg.o)
                                        0x215 (size before relaxing)
 .debug_str     0x0000000000003656       0x30 C:/Users/test/Documents/EPFL/MA1/Embedded/Lab4/lab_4_V2/sw/lab4_cam1_bsp/\libhal_bsp.a(alt_get_fd.o)
                                        0x228 (size before relaxing)
 .debug_str     0x0000000000003686       0x34 C:/Users/test/Documents/EPFL/MA1/Embedded/Lab4/lab_4_V2/sw/lab4_cam1_bsp/\libhal_bsp.a(alt_icache_flush_all.o)
                                        0x161 (size before relaxing)
 .debug_str     0x00000000000036ba       0xbd C:/Users/test/Documents/EPFL/MA1/Embedded/Lab4/lab_4_V2/sw/lab4_cam1_bsp/\libhal_bsp.a(alt_iic.o)
                                        0x24a (size before relaxing)
 .debug_str     0x0000000000003777       0x4c C:/Users/test/Documents/EPFL/MA1/Embedded/Lab4/lab_4_V2/sw/lab4_cam1_bsp/\libhal_bsp.a(alt_iic_isr_register.o)
                                        0x1f4 (size before relaxing)
 .debug_str     0x00000000000037c3       0x56 C:/Users/test/Documents/EPFL/MA1/Embedded/Lab4/lab_4_V2/sw/lab4_cam1_bsp/\libhal_bsp.a(alt_io_redirect.o)
                                        0x322 (size before relaxing)
 .debug_str     0x0000000000003819       0x3a C:/Users/test/Documents/EPFL/MA1/Embedded/Lab4/lab_4_V2/sw/lab4_cam1_bsp/\libhal_bsp.a(alt_irq_handler.o)
                                        0x1a3 (size before relaxing)
 .debug_str     0x0000000000003853       0x17 C:/Users/test/Documents/EPFL/MA1/Embedded/Lab4/lab_4_V2/sw/lab4_cam1_bsp/\libhal_bsp.a(alt_irq_vars.o)
                                        0x146 (size before relaxing)
 .debug_str     0x000000000000386a       0x4a C:/Users/test/Documents/EPFL/MA1/Embedded/Lab4/lab_4_V2/sw/lab4_cam1_bsp/\libhal_bsp.a(alt_tick.o)
                                        0x25e (size before relaxing)
 .debug_str     0x00000000000038b4       0x3b C:/Users/test/Documents/EPFL/MA1/Embedded/Lab4/lab_4_V2/sw/lab4_cam1_bsp/\libhal_bsp.a(altera_nios2_gen2_irq.o)
                                        0x168 (size before relaxing)
 .debug_str     0x00000000000038ef       0x2c C:/Users/test/Documents/EPFL/MA1/Embedded/Lab4/lab_4_V2/sw/lab4_cam1_bsp/\libhal_bsp.a(alt_icache_flush.o)
                                        0x167 (size before relaxing)
 .debug_str     0x000000000000391b      0x48b C:/Users/test/Documents/EPFL/MA1/Embedded/Lab4/lab_4_V2/sw/lab4_cam1_bsp/\libhal_bsp.a(alt_instruction_exception_entry.o)
                                        0x5ac (size before relaxing)
 .debug_str     0x0000000000003da6       0x7e x:/quartus/18.1/nios2eds/bin/gnu/h-x86_64-mingw32/bin/../lib/gcc/nios2-elf/5.3.0/../../../../../H-x86_64-mingw32/nios2-elf/lib\libc.a(lib_a-atexit.o)
                                        0x207 (size before relaxing)
 .debug_str     0x0000000000003e24       0x49 x:/quartus/18.1/nios2eds/bin/gnu/h-x86_64-mingw32/bin/../lib/gcc/nios2-elf/5.3.0/../../../../../H-x86_64-mingw32/nios2-elf/lib\libc.a(lib_a-exit.o)
                                        0x5a4 (size before relaxing)
 .debug_str     0x0000000000003e6d       0x41 x:/quartus/18.1/nios2eds/bin/gnu/h-x86_64-mingw32/bin/../lib/gcc/nios2-elf/5.3.0/../../../../../H-x86_64-mingw32/nios2-elf/lib\libc.a(lib_a-memcmp.o)
                                        0x1ca (size before relaxing)
 .debug_str     0x0000000000003eae       0x3c x:/quartus/18.1/nios2eds/bin/gnu/h-x86_64-mingw32/bin/../lib/gcc/nios2-elf/5.3.0/../../../../../H-x86_64-mingw32/nios2-elf/lib\libc.a(lib_a-__atexit.o)
                                        0x5dc (size before relaxing)
 .debug_str     0x0000000000003eea       0x5d x:/quartus/18.1/nios2eds/bin/gnu/h-x86_64-mingw32/bin/../lib/gcc/nios2-elf/5.3.0/../../../../../H-x86_64-mingw32/nios2-elf/lib\libc.a(lib_a-__call_atexit.o)
                                        0x5c8 (size before relaxing)
 .debug_str     0x0000000000003f47       0x2a C:/Users/test/Documents/EPFL/MA1/Embedded/Lab4/lab_4_V2/sw/lab4_cam1_bsp/\libhal_bsp.a(alt_exit.o)
                                        0x15d (size before relaxing)

.debug_loc      0x0000000000000000    0x186f0
 *(.debug_loc)
 .debug_loc     0x0000000000000000      0x4ce x:/quartus/18.1/nios2eds/bin/gnu/h-x86_64-mingw32/bin/../lib/gcc/nios2-elf/5.3.0\libgcc.a(lib2-divmod.o)
 .debug_loc     0x00000000000004ce      0x199 x:/quartus/18.1/nios2eds/bin/gnu/h-x86_64-mingw32/bin/../lib/gcc/nios2-elf/5.3.0/../../../../../H-x86_64-mingw32/nios2-elf/lib\libc.a(lib_a-fclose.o)
 .debug_loc     0x0000000000000667      0x36f x:/quartus/18.1/nios2eds/bin/gnu/h-x86_64-mingw32/bin/../lib/gcc/nios2-elf/5.3.0/../../../../../H-x86_64-mingw32/nios2-elf/lib\libc.a(lib_a-fflush.o)
 .debug_loc     0x00000000000009d6      0x2ee x:/quartus/18.1/nios2eds/bin/gnu/h-x86_64-mingw32/bin/../lib/gcc/nios2-elf/5.3.0/../../../../../H-x86_64-mingw32/nios2-elf/lib\libc.a(lib_a-findfp.o)
 .debug_loc     0x0000000000000cc4      0x157 x:/quartus/18.1/nios2eds/bin/gnu/h-x86_64-mingw32/bin/../lib/gcc/nios2-elf/5.3.0/../../../../../H-x86_64-mingw32/nios2-elf/lib\libc.a(lib_a-fopen.o)
 .debug_loc     0x0000000000000e1b      0x115 x:/quartus/18.1/nios2eds/bin/gnu/h-x86_64-mingw32/bin/../lib/gcc/nios2-elf/5.3.0/../../../../../H-x86_64-mingw32/nios2-elf/lib\libc.a(lib_a-fprintf.o)
 .debug_loc     0x0000000000000f30      0x126 x:/quartus/18.1/nios2eds/bin/gnu/h-x86_64-mingw32/bin/../lib/gcc/nios2-elf/5.3.0/../../../../../H-x86_64-mingw32/nios2-elf/lib\libc.a(lib_a-fputc.o)
 .debug_loc     0x0000000000001056      0x4e7 x:/quartus/18.1/nios2eds/bin/gnu/h-x86_64-mingw32/bin/../lib/gcc/nios2-elf/5.3.0/../../../../../H-x86_64-mingw32/nios2-elf/lib\libc.a(lib_a-freer.o)
 .debug_loc     0x000000000000153d      0x18c x:/quartus/18.1/nios2eds/bin/gnu/h-x86_64-mingw32/bin/../lib/gcc/nios2-elf/5.3.0/../../../../../H-x86_64-mingw32/nios2-elf/lib\libc.a(lib_a-fseek.o)
 .debug_loc     0x00000000000016c9      0x3cd x:/quartus/18.1/nios2eds/bin/gnu/h-x86_64-mingw32/bin/../lib/gcc/nios2-elf/5.3.0/../../../../../H-x86_64-mingw32/nios2-elf/lib\libc.a(lib_a-fseeko.o)
 .debug_loc     0x0000000000001a96       0x84 x:/quartus/18.1/nios2eds/bin/gnu/h-x86_64-mingw32/bin/../lib/gcc/nios2-elf/5.3.0/../../../../../H-x86_64-mingw32/nios2-elf/lib\libc.a(lib_a-fstatr.o)
 .debug_loc     0x0000000000001b1a      0x25b x:/quartus/18.1/nios2eds/bin/gnu/h-x86_64-mingw32/bin/../lib/gcc/nios2-elf/5.3.0/../../../../../H-x86_64-mingw32/nios2-elf/lib\libc.a(lib_a-fwalk.o)
 .debug_loc     0x0000000000001d75      0x122 x:/quartus/18.1/nios2eds/bin/gnu/h-x86_64-mingw32/bin/../lib/gcc/nios2-elf/5.3.0/../../../../../H-x86_64-mingw32/nios2-elf/lib\libc.a(lib_a-makebuf.o)
 .debug_loc     0x0000000000001e97      0xb1b x:/quartus/18.1/nios2eds/bin/gnu/h-x86_64-mingw32/bin/../lib/gcc/nios2-elf/5.3.0/../../../../../H-x86_64-mingw32/nios2-elf/lib\libc.a(lib_a-mallocr.o)
 .debug_loc     0x00000000000029b2      0x1a6 x:/quartus/18.1/nios2eds/bin/gnu/h-x86_64-mingw32/bin/../lib/gcc/nios2-elf/5.3.0/../../../../../H-x86_64-mingw32/nios2-elf/lib\libc.a(lib_a-memset.o)
 .debug_loc     0x0000000000002b58       0xb0 x:/quartus/18.1/nios2eds/bin/gnu/h-x86_64-mingw32/bin/../lib/gcc/nios2-elf/5.3.0/../../../../../H-x86_64-mingw32/nios2-elf/lib\libc.a(lib_a-openr.o)
 .debug_loc     0x0000000000002c08       0xd3 x:/quartus/18.1/nios2eds/bin/gnu/h-x86_64-mingw32/bin/../lib/gcc/nios2-elf/5.3.0/../../../../../H-x86_64-mingw32/nios2-elf/lib\libc.a(lib_a-printf.o)
 .debug_loc     0x0000000000002cdb      0x224 x:/quartus/18.1/nios2eds/bin/gnu/h-x86_64-mingw32/bin/../lib/gcc/nios2-elf/5.3.0/../../../../../H-x86_64-mingw32/nios2-elf/lib\libc.a(lib_a-putc.o)
 .debug_loc     0x0000000000002eff      0x117 x:/quartus/18.1/nios2eds/bin/gnu/h-x86_64-mingw32/bin/../lib/gcc/nios2-elf/5.3.0/../../../../../H-x86_64-mingw32/nios2-elf/lib\libc.a(lib_a-puts.o)
 .debug_loc     0x0000000000003016      0x127 x:/quartus/18.1/nios2eds/bin/gnu/h-x86_64-mingw32/bin/../lib/gcc/nios2-elf/5.3.0/../../../../../H-x86_64-mingw32/nios2-elf/lib\libc.a(lib_a-refill.o)
 .debug_loc     0x000000000000313d       0x97 x:/quartus/18.1/nios2eds/bin/gnu/h-x86_64-mingw32/bin/../lib/gcc/nios2-elf/5.3.0/../../../../../H-x86_64-mingw32/nios2-elf/lib\libc.a(lib_a-rewind.o)
 .debug_loc     0x00000000000031d4       0x58 x:/quartus/18.1/nios2eds/bin/gnu/h-x86_64-mingw32/bin/../lib/gcc/nios2-elf/5.3.0/../../../../../H-x86_64-mingw32/nios2-elf/lib\libc.a(lib_a-sbrkr.o)
 .debug_loc     0x000000000000322c      0x33a x:/quartus/18.1/nios2eds/bin/gnu/h-x86_64-mingw32/bin/../lib/gcc/nios2-elf/5.3.0/../../../../../H-x86_64-mingw32/nios2-elf/lib\libc.a(lib_a-stdio.o)
 .debug_loc     0x0000000000003566       0x47 x:/quartus/18.1/nios2eds/bin/gnu/h-x86_64-mingw32/bin/../lib/gcc/nios2-elf/5.3.0/../../../../../H-x86_64-mingw32/nios2-elf/lib\libc.a(lib_a-strlen.o)
 .debug_loc     0x00000000000035ad     0x30cf x:/quartus/18.1/nios2eds/bin/gnu/h-x86_64-mingw32/bin/../lib/gcc/nios2-elf/5.3.0/../../../../../H-x86_64-mingw32/nios2-elf/lib\libc.a(lib_a-vfprintf.o)
 .debug_loc     0x000000000000667c      0x1b2 x:/quartus/18.1/nios2eds/bin/gnu/h-x86_64-mingw32/bin/../lib/gcc/nios2-elf/5.3.0/../../../../../H-x86_64-mingw32/nios2-elf/lib\libc.a(lib_a-wbuf.o)
 .debug_loc     0x000000000000682e       0xb0 x:/quartus/18.1/nios2eds/bin/gnu/h-x86_64-mingw32/bin/../lib/gcc/nios2-elf/5.3.0/../../../../../H-x86_64-mingw32/nios2-elf/lib\libc.a(lib_a-writer.o)
 .debug_loc     0x00000000000068de       0xa2 x:/quartus/18.1/nios2eds/bin/gnu/h-x86_64-mingw32/bin/../lib/gcc/nios2-elf/5.3.0/../../../../../H-x86_64-mingw32/nios2-elf/lib\libc.a(lib_a-wsetup.o)
 .debug_loc     0x0000000000006980       0x58 x:/quartus/18.1/nios2eds/bin/gnu/h-x86_64-mingw32/bin/../lib/gcc/nios2-elf/5.3.0/../../../../../H-x86_64-mingw32/nios2-elf/lib\libc.a(closer.o)
 .debug_loc     0x00000000000069d8     0x2855 x:/quartus/18.1/nios2eds/bin/gnu/h-x86_64-mingw32/bin/../lib/gcc/nios2-elf/5.3.0/../../../../../H-x86_64-mingw32/nios2-elf/lib\libc.a(lib_a-dtoa.o)
 .debug_loc     0x000000000000922d      0x10b x:/quartus/18.1/nios2eds/bin/gnu/h-x86_64-mingw32/bin/../lib/gcc/nios2-elf/5.3.0/../../../../../H-x86_64-mingw32/nios2-elf/lib\libc.a(lib_a-flags.o)
 .debug_loc     0x0000000000009338      0x5d7 x:/quartus/18.1/nios2eds/bin/gnu/h-x86_64-mingw32/bin/../lib/gcc/nios2-elf/5.3.0/../../../../../H-x86_64-mingw32/nios2-elf/lib\libc.a(lib_a-fvwrite.o)
 .debug_loc     0x000000000000990f       0x58 x:/quartus/18.1/nios2eds/bin/gnu/h-x86_64-mingw32/bin/../lib/gcc/nios2-elf/5.3.0/../../../../../H-x86_64-mingw32/nios2-elf/lib\libc.a(lib_a-isattyr.o)
 .debug_loc     0x0000000000009967      0x131 x:/quartus/18.1/nios2eds/bin/gnu/h-x86_64-mingw32/bin/../lib/gcc/nios2-elf/5.3.0/../../../../../H-x86_64-mingw32/nios2-elf/lib\libc.a(lib_a-locale.o)
 .debug_loc     0x0000000000009a98       0xb0 x:/quartus/18.1/nios2eds/bin/gnu/h-x86_64-mingw32/bin/../lib/gcc/nios2-elf/5.3.0/../../../../../H-x86_64-mingw32/nios2-elf/lib\libc.a(lib_a-lseekr.o)
 .debug_loc     0x0000000000009b48      0x1a1 x:/quartus/18.1/nios2eds/bin/gnu/h-x86_64-mingw32/bin/../lib/gcc/nios2-elf/5.3.0/../../../../../H-x86_64-mingw32/nios2-elf/lib\libc.a(lib_a-memchr.o)
 .debug_loc     0x0000000000009ce9      0x266 x:/quartus/18.1/nios2eds/bin/gnu/h-x86_64-mingw32/bin/../lib/gcc/nios2-elf/5.3.0/../../../../../H-x86_64-mingw32/nios2-elf/lib\libc.a(lib_a-memcpy.o)
 .debug_loc     0x0000000000009f4f      0x308 x:/quartus/18.1/nios2eds/bin/gnu/h-x86_64-mingw32/bin/../lib/gcc/nios2-elf/5.3.0/../../../../../H-x86_64-mingw32/nios2-elf/lib\libc.a(lib_a-memmove.o)
 .debug_loc     0x000000000000a257     0x1bee x:/quartus/18.1/nios2eds/bin/gnu/h-x86_64-mingw32/bin/../lib/gcc/nios2-elf/5.3.0/../../../../../H-x86_64-mingw32/nios2-elf/lib\libc.a(lib_a-mprec.o)
 .debug_loc     0x000000000000be45       0xb0 x:/quartus/18.1/nios2eds/bin/gnu/h-x86_64-mingw32/bin/../lib/gcc/nios2-elf/5.3.0/../../../../../H-x86_64-mingw32/nios2-elf/lib\libc.a(lib_a-readr.o)
 .debug_loc     0x000000000000bef5      0xde4 x:/quartus/18.1/nios2eds/bin/gnu/h-x86_64-mingw32/bin/../lib/gcc/nios2-elf/5.3.0/../../../../../H-x86_64-mingw32/nios2-elf/lib\libc.a(lib_a-reallocr.o)
 .debug_loc     0x000000000000ccd9       0x2f x:/quartus/18.1/nios2eds/bin/gnu/h-x86_64-mingw32/bin/../lib/gcc/nios2-elf/5.3.0/../../../../../H-x86_64-mingw32/nios2-elf/lib\libc.a(lib_a-s_fpclassify.o)
 .debug_loc     0x000000000000cd08       0xc6 x:/quartus/18.1/nios2eds/bin/gnu/h-x86_64-mingw32/bin/../lib/gcc/nios2-elf/5.3.0/../../../../../H-x86_64-mingw32/nios2-elf/lib\libc.a(lib_a-strcmp.o)
 .debug_loc     0x000000000000cdce     0x2739 x:/quartus/18.1/nios2eds/bin/gnu/h-x86_64-mingw32/bin/../lib/gcc/nios2-elf/5.3.0/../../../../../H-x86_64-mingw32/nios2-elf/lib\libc.a(lib_a-vfiprintf.o)
 .debug_loc     0x000000000000f507      0x1db x:/quartus/18.1/nios2eds/bin/gnu/h-x86_64-mingw32/bin/../lib/gcc/nios2-elf/5.3.0/../../../../../H-x86_64-mingw32/nios2-elf/lib\libc.a(lib_a-callocr.o)
 .debug_loc     0x000000000000f6e2      0x2a1 x:/quartus/18.1/nios2eds/bin/gnu/h-x86_64-mingw32/bin/../lib/gcc/nios2-elf/5.3.0/../../../../../H-x86_64-mingw32/nios2-elf/lib\libc.a(lib_a-fputwc.o)
 .debug_loc     0x000000000000f983      0x24e x:/quartus/18.1/nios2eds/bin/gnu/h-x86_64-mingw32/bin/../lib/gcc/nios2-elf/5.3.0/../../../../../H-x86_64-mingw32/nios2-elf/lib\libc.a(lib_a-wcrtomb.o)
 .debug_loc     0x000000000000fbd1       0x8f x:/quartus/18.1/nios2eds/bin/gnu/h-x86_64-mingw32/bin/../lib/gcc/nios2-elf/5.3.0/../../../../../H-x86_64-mingw32/nios2-elf/lib\libc.a(lib_a-wctomb_r.o)
 .debug_loc     0x000000000000fc60     0x10ca x:/quartus/18.1/nios2eds/bin/gnu/h-x86_64-mingw32/bin/../lib/gcc/nios2-elf/5.3.0\libgcc.a(_udivdi3.o)
 .debug_loc     0x0000000000010d2a     0x10ad x:/quartus/18.1/nios2eds/bin/gnu/h-x86_64-mingw32/bin/../lib/gcc/nios2-elf/5.3.0\libgcc.a(_umoddi3.o)
 .debug_loc     0x0000000000011dd7     0x16f9 x:/quartus/18.1/nios2eds/bin/gnu/h-x86_64-mingw32/bin/../lib/gcc/nios2-elf/5.3.0\libgcc.a(adddf3.o)
 .debug_loc     0x00000000000134d0     0x1fc6 x:/quartus/18.1/nios2eds/bin/gnu/h-x86_64-mingw32/bin/../lib/gcc/nios2-elf/5.3.0\libgcc.a(divdf3.o)
 .debug_loc     0x0000000000015496       0x68 x:/quartus/18.1/nios2eds/bin/gnu/h-x86_64-mingw32/bin/../lib/gcc/nios2-elf/5.3.0\libgcc.a(eqdf2.o)
 .debug_loc     0x00000000000154fe       0xf9 x:/quartus/18.1/nios2eds/bin/gnu/h-x86_64-mingw32/bin/../lib/gcc/nios2-elf/5.3.0\libgcc.a(gedf2.o)
 .debug_loc     0x00000000000155f7      0x163 x:/quartus/18.1/nios2eds/bin/gnu/h-x86_64-mingw32/bin/../lib/gcc/nios2-elf/5.3.0\libgcc.a(ledf2.o)
 .debug_loc     0x000000000001575a     0x100d x:/quartus/18.1/nios2eds/bin/gnu/h-x86_64-mingw32/bin/../lib/gcc/nios2-elf/5.3.0\libgcc.a(muldf3.o)
 .debug_loc     0x0000000000016767     0x1627 x:/quartus/18.1/nios2eds/bin/gnu/h-x86_64-mingw32/bin/../lib/gcc/nios2-elf/5.3.0\libgcc.a(subdf3.o)
 .debug_loc     0x0000000000017d8e      0x121 x:/quartus/18.1/nios2eds/bin/gnu/h-x86_64-mingw32/bin/../lib/gcc/nios2-elf/5.3.0\libgcc.a(fixdfsi.o)
 .debug_loc     0x0000000000017eaf      0x175 x:/quartus/18.1/nios2eds/bin/gnu/h-x86_64-mingw32/bin/../lib/gcc/nios2-elf/5.3.0\libgcc.a(floatsidf.o)
 .debug_loc     0x0000000000018024      0x19e x:/quartus/18.1/nios2eds/bin/gnu/h-x86_64-mingw32/bin/../lib/gcc/nios2-elf/5.3.0\libgcc.a(floatunsidf.o)
 .debug_loc     0x00000000000181c2       0x6b x:/quartus/18.1/nios2eds/bin/gnu/h-x86_64-mingw32/bin/../lib/gcc/nios2-elf/5.3.0\libgcc.a(_clzsi2.o)
 .debug_loc     0x000000000001822d       0x2c x:/quartus/18.1/nios2eds/bin/gnu/h-x86_64-mingw32/bin/../lib/gcc/nios2-elf/5.3.0/../../../../../H-x86_64-mingw32/nios2-elf/lib\libc.a(lib_a-atexit.o)
 .debug_loc     0x0000000000018259       0x1e x:/quartus/18.1/nios2eds/bin/gnu/h-x86_64-mingw32/bin/../lib/gcc/nios2-elf/5.3.0/../../../../../H-x86_64-mingw32/nios2-elf/lib\libc.a(lib_a-exit.o)
 .debug_loc     0x0000000000018277      0x126 x:/quartus/18.1/nios2eds/bin/gnu/h-x86_64-mingw32/bin/../lib/gcc/nios2-elf/5.3.0/../../../../../H-x86_64-mingw32/nios2-elf/lib\libc.a(lib_a-memcmp.o)
 .debug_loc     0x000000000001839d      0x185 x:/quartus/18.1/nios2eds/bin/gnu/h-x86_64-mingw32/bin/../lib/gcc/nios2-elf/5.3.0/../../../../../H-x86_64-mingw32/nios2-elf/lib\libc.a(lib_a-__atexit.o)
 .debug_loc     0x0000000000018522      0x1ce x:/quartus/18.1/nios2eds/bin/gnu/h-x86_64-mingw32/bin/../lib/gcc/nios2-elf/5.3.0/../../../../../H-x86_64-mingw32/nios2-elf/lib\libc.a(lib_a-__call_atexit.o)

.debug_macinfo
 *(.debug_macinfo)

.debug_weaknames
 *(.debug_weaknames)

.debug_funcnames
 *(.debug_funcnames)

.debug_typenames
 *(.debug_typenames)

.debug_varnames
 *(.debug_varnames)

.debug_alt_sim_info
                0x0000000000000000       0x60
 *(.debug_alt_sim_info)
 .debug_alt_sim_info
                0x0000000000000000       0x30 C:/Users/test/Documents/EPFL/MA1/Embedded/Lab4/lab_4_V2/sw/lab4_cam1_bsp//obj/HAL/src/crt0.o
 .debug_alt_sim_info
                0x0000000000000030       0x30 C:/Users/test/Documents/EPFL/MA1/Embedded/Lab4/lab_4_V2/sw/lab4_cam1_bsp/\libhal_bsp.a(alt_busy_sleep.o)
                0x0000000010120000                __alt_data_end = 0x10120000
                0x0000000010120000                PROVIDE (__alt_stack_pointer, __alt_data_end)
                [!provide]                        PROVIDE (__alt_stack_limit, __alt_stack_base)
                0x00000000101157d8                PROVIDE (__alt_heap_start, end)
                0x0000000010120000                PROVIDE (__alt_heap_limit, 0x10120000)
OUTPUT(lab4_cam1.elf elf32-littlenios2)

.debug_ranges   0x0000000000000000     0x1a40
 .debug_ranges  0x0000000000000000       0x20 C:/Users/test/Documents/EPFL/MA1/Embedded/Lab4/lab_4_V2/sw/lab4_cam1_bsp//obj/HAL/src/crt0.o
 .debug_ranges  0x0000000000000020       0x60 x:/quartus/18.1/nios2eds/bin/gnu/h-x86_64-mingw32/bin/../lib/gcc/nios2-elf/5.3.0\libgcc.a(lib2-divmod.o)
 .debug_ranges  0x0000000000000080       0x48 x:/quartus/18.1/nios2eds/bin/gnu/h-x86_64-mingw32/bin/../lib/gcc/nios2-elf/5.3.0/../../../../../H-x86_64-mingw32/nios2-elf/lib\libc.a(lib_a-fclose.o)
 .debug_ranges  0x00000000000000c8       0x58 x:/quartus/18.1/nios2eds/bin/gnu/h-x86_64-mingw32/bin/../lib/gcc/nios2-elf/5.3.0/../../../../../H-x86_64-mingw32/nios2-elf/lib\libc.a(lib_a-fflush.o)
 .debug_ranges  0x0000000000000120       0xc8 x:/quartus/18.1/nios2eds/bin/gnu/h-x86_64-mingw32/bin/../lib/gcc/nios2-elf/5.3.0/../../../../../H-x86_64-mingw32/nios2-elf/lib\libc.a(lib_a-findfp.o)
 .debug_ranges  0x00000000000001e8       0x18 x:/quartus/18.1/nios2eds/bin/gnu/h-x86_64-mingw32/bin/../lib/gcc/nios2-elf/5.3.0/../../../../../H-x86_64-mingw32/nios2-elf/lib\libc.a(lib_a-fopen.o)
 .debug_ranges  0x0000000000000200       0x18 x:/quartus/18.1/nios2eds/bin/gnu/h-x86_64-mingw32/bin/../lib/gcc/nios2-elf/5.3.0/../../../../../H-x86_64-mingw32/nios2-elf/lib\libc.a(lib_a-fprintf.o)
 .debug_ranges  0x0000000000000218       0x18 x:/quartus/18.1/nios2eds/bin/gnu/h-x86_64-mingw32/bin/../lib/gcc/nios2-elf/5.3.0/../../../../../H-x86_64-mingw32/nios2-elf/lib\libc.a(lib_a-fputc.o)
 .debug_ranges  0x0000000000000230       0x18 x:/quartus/18.1/nios2eds/bin/gnu/h-x86_64-mingw32/bin/../lib/gcc/nios2-elf/5.3.0/../../../../../H-x86_64-mingw32/nios2-elf/lib\libc.a(lib_a-freer.o)
 .debug_ranges  0x0000000000000248       0x30 x:/quartus/18.1/nios2eds/bin/gnu/h-x86_64-mingw32/bin/../lib/gcc/nios2-elf/5.3.0/../../../../../H-x86_64-mingw32/nios2-elf/lib\libc.a(lib_a-fseek.o)
 .debug_ranges  0x0000000000000278       0x30 x:/quartus/18.1/nios2eds/bin/gnu/h-x86_64-mingw32/bin/../lib/gcc/nios2-elf/5.3.0/../../../../../H-x86_64-mingw32/nios2-elf/lib\libc.a(lib_a-fseeko.o)
 .debug_ranges  0x00000000000002a8       0x10 x:/quartus/18.1/nios2eds/bin/gnu/h-x86_64-mingw32/bin/../lib/gcc/nios2-elf/5.3.0/../../../../../H-x86_64-mingw32/nios2-elf/lib\libc.a(lib_a-fstatr.o)
 .debug_ranges  0x00000000000002b8       0x18 x:/quartus/18.1/nios2eds/bin/gnu/h-x86_64-mingw32/bin/../lib/gcc/nios2-elf/5.3.0/../../../../../H-x86_64-mingw32/nios2-elf/lib\libc.a(lib_a-fwalk.o)
 .debug_ranges  0x00000000000002d0       0x10 x:/quartus/18.1/nios2eds/bin/gnu/h-x86_64-mingw32/bin/../lib/gcc/nios2-elf/5.3.0/../../../../../H-x86_64-mingw32/nios2-elf/lib\libc.a(lib_a-makebuf.o)
 .debug_ranges  0x00000000000002e0       0x48 x:/quartus/18.1/nios2eds/bin/gnu/h-x86_64-mingw32/bin/../lib/gcc/nios2-elf/5.3.0/../../../../../H-x86_64-mingw32/nios2-elf/lib\libc.a(lib_a-mallocr.o)
 .debug_ranges  0x0000000000000328       0x10 x:/quartus/18.1/nios2eds/bin/gnu/h-x86_64-mingw32/bin/../lib/gcc/nios2-elf/5.3.0/../../../../../H-x86_64-mingw32/nios2-elf/lib\libc.a(lib_a-memset.o)
 .debug_ranges  0x0000000000000338       0x10 x:/quartus/18.1/nios2eds/bin/gnu/h-x86_64-mingw32/bin/../lib/gcc/nios2-elf/5.3.0/../../../../../H-x86_64-mingw32/nios2-elf/lib\libc.a(lib_a-openr.o)
 .debug_ranges  0x0000000000000348       0x18 x:/quartus/18.1/nios2eds/bin/gnu/h-x86_64-mingw32/bin/../lib/gcc/nios2-elf/5.3.0/../../../../../H-x86_64-mingw32/nios2-elf/lib\libc.a(lib_a-printf.o)
 .debug_ranges  0x0000000000000360       0x48 x:/quartus/18.1/nios2eds/bin/gnu/h-x86_64-mingw32/bin/../lib/gcc/nios2-elf/5.3.0/../../../../../H-x86_64-mingw32/nios2-elf/lib\libc.a(lib_a-putc.o)
 .debug_ranges  0x00000000000003a8       0x30 x:/quartus/18.1/nios2eds/bin/gnu/h-x86_64-mingw32/bin/../lib/gcc/nios2-elf/5.3.0/../../../../../H-x86_64-mingw32/nios2-elf/lib\libc.a(lib_a-puts.o)
 .debug_ranges  0x00000000000003d8       0x30 x:/quartus/18.1/nios2eds/bin/gnu/h-x86_64-mingw32/bin/../lib/gcc/nios2-elf/5.3.0/../../../../../H-x86_64-mingw32/nios2-elf/lib\libc.a(lib_a-refill.o)
 .debug_ranges  0x0000000000000408       0x40 x:/quartus/18.1/nios2eds/bin/gnu/h-x86_64-mingw32/bin/../lib/gcc/nios2-elf/5.3.0/../../../../../H-x86_64-mingw32/nios2-elf/lib\libc.a(lib_a-rewind.o)
 .debug_ranges  0x0000000000000448       0x10 x:/quartus/18.1/nios2eds/bin/gnu/h-x86_64-mingw32/bin/../lib/gcc/nios2-elf/5.3.0/../../../../../H-x86_64-mingw32/nios2-elf/lib\libc.a(lib_a-sbrkr.o)
 .debug_ranges  0x0000000000000458       0x30 x:/quartus/18.1/nios2eds/bin/gnu/h-x86_64-mingw32/bin/../lib/gcc/nios2-elf/5.3.0/../../../../../H-x86_64-mingw32/nios2-elf/lib\libc.a(lib_a-stdio.o)
 .debug_ranges  0x0000000000000488       0x10 x:/quartus/18.1/nios2eds/bin/gnu/h-x86_64-mingw32/bin/../lib/gcc/nios2-elf/5.3.0/../../../../../H-x86_64-mingw32/nios2-elf/lib\libc.a(lib_a-strlen.o)
 .debug_ranges  0x0000000000000498      0x178 x:/quartus/18.1/nios2eds/bin/gnu/h-x86_64-mingw32/bin/../lib/gcc/nios2-elf/5.3.0/../../../../../H-x86_64-mingw32/nios2-elf/lib\libc.a(lib_a-vfprintf.o)
 .debug_ranges  0x0000000000000610       0x30 x:/quartus/18.1/nios2eds/bin/gnu/h-x86_64-mingw32/bin/../lib/gcc/nios2-elf/5.3.0/../../../../../H-x86_64-mingw32/nios2-elf/lib\libc.a(lib_a-wbuf.o)
 .debug_ranges  0x0000000000000640       0x10 x:/quartus/18.1/nios2eds/bin/gnu/h-x86_64-mingw32/bin/../lib/gcc/nios2-elf/5.3.0/../../../../../H-x86_64-mingw32/nios2-elf/lib\libc.a(lib_a-writer.o)
 .debug_ranges  0x0000000000000650       0x40 x:/quartus/18.1/nios2eds/bin/gnu/h-x86_64-mingw32/bin/../lib/gcc/nios2-elf/5.3.0/../../../../../H-x86_64-mingw32/nios2-elf/lib\libc.a(lib_a-wsetup.o)
 .debug_ranges  0x0000000000000690       0x10 x:/quartus/18.1/nios2eds/bin/gnu/h-x86_64-mingw32/bin/../lib/gcc/nios2-elf/5.3.0/../../../../../H-x86_64-mingw32/nios2-elf/lib\libc.a(closer.o)
 .debug_ranges  0x00000000000006a0       0x18 x:/quartus/18.1/nios2eds/bin/gnu/h-x86_64-mingw32/bin/../lib/gcc/nios2-elf/5.3.0/../../../../../H-x86_64-mingw32/nios2-elf/lib\libc.a(lib_a-dtoa.o)
 .debug_ranges  0x00000000000006b8       0x10 x:/quartus/18.1/nios2eds/bin/gnu/h-x86_64-mingw32/bin/../lib/gcc/nios2-elf/5.3.0/../../../../../H-x86_64-mingw32/nios2-elf/lib\libc.a(lib_a-flags.o)
 .debug_ranges  0x00000000000006c8       0x30 x:/quartus/18.1/nios2eds/bin/gnu/h-x86_64-mingw32/bin/../lib/gcc/nios2-elf/5.3.0/../../../../../H-x86_64-mingw32/nios2-elf/lib\libc.a(lib_a-fvwrite.o)
 .debug_ranges  0x00000000000006f8       0x10 x:/quartus/18.1/nios2eds/bin/gnu/h-x86_64-mingw32/bin/../lib/gcc/nios2-elf/5.3.0/../../../../../H-x86_64-mingw32/nios2-elf/lib\libc.a(lib_a-isattyr.o)
 .debug_ranges  0x0000000000000708       0x60 x:/quartus/18.1/nios2eds/bin/gnu/h-x86_64-mingw32/bin/../lib/gcc/nios2-elf/5.3.0/../../../../../H-x86_64-mingw32/nios2-elf/lib\libc.a(lib_a-locale.o)
 .debug_ranges  0x0000000000000768       0x10 x:/quartus/18.1/nios2eds/bin/gnu/h-x86_64-mingw32/bin/../lib/gcc/nios2-elf/5.3.0/../../../../../H-x86_64-mingw32/nios2-elf/lib\libc.a(lib_a-lseekr.o)
 .debug_ranges  0x0000000000000778       0x10 x:/quartus/18.1/nios2eds/bin/gnu/h-x86_64-mingw32/bin/../lib/gcc/nios2-elf/5.3.0/../../../../../H-x86_64-mingw32/nios2-elf/lib\libc.a(lib_a-memchr.o)
 .debug_ranges  0x0000000000000788       0x10 x:/quartus/18.1/nios2eds/bin/gnu/h-x86_64-mingw32/bin/../lib/gcc/nios2-elf/5.3.0/../../../../../H-x86_64-mingw32/nios2-elf/lib\libc.a(lib_a-memcpy.o)
 .debug_ranges  0x0000000000000798       0x10 x:/quartus/18.1/nios2eds/bin/gnu/h-x86_64-mingw32/bin/../lib/gcc/nios2-elf/5.3.0/../../../../../H-x86_64-mingw32/nios2-elf/lib\libc.a(lib_a-memmove.o)
 .debug_ranges  0x00000000000007a8       0xe8 x:/quartus/18.1/nios2eds/bin/gnu/h-x86_64-mingw32/bin/../lib/gcc/nios2-elf/5.3.0/../../../../../H-x86_64-mingw32/nios2-elf/lib\libc.a(lib_a-mprec.o)
 .debug_ranges  0x0000000000000890       0x10 x:/quartus/18.1/nios2eds/bin/gnu/h-x86_64-mingw32/bin/../lib/gcc/nios2-elf/5.3.0/../../../../../H-x86_64-mingw32/nios2-elf/lib\libc.a(lib_a-readr.o)
 .debug_ranges  0x00000000000008a0      0x148 x:/quartus/18.1/nios2eds/bin/gnu/h-x86_64-mingw32/bin/../lib/gcc/nios2-elf/5.3.0/../../../../../H-x86_64-mingw32/nios2-elf/lib\libc.a(lib_a-reallocr.o)
 .debug_ranges  0x00000000000009e8       0x10 x:/quartus/18.1/nios2eds/bin/gnu/h-x86_64-mingw32/bin/../lib/gcc/nios2-elf/5.3.0/../../../../../H-x86_64-mingw32/nios2-elf/lib\libc.a(lib_a-s_fpclassify.o)
 .debug_ranges  0x00000000000009f8       0x10 x:/quartus/18.1/nios2eds/bin/gnu/h-x86_64-mingw32/bin/../lib/gcc/nios2-elf/5.3.0/../../../../../H-x86_64-mingw32/nios2-elf/lib\libc.a(lib_a-strcmp.o)
 .debug_ranges  0x0000000000000a08      0x1b8 x:/quartus/18.1/nios2eds/bin/gnu/h-x86_64-mingw32/bin/../lib/gcc/nios2-elf/5.3.0/../../../../../H-x86_64-mingw32/nios2-elf/lib\libc.a(lib_a-vfiprintf.o)
 .debug_ranges  0x0000000000000bc0       0x48 x:/quartus/18.1/nios2eds/bin/gnu/h-x86_64-mingw32/bin/../lib/gcc/nios2-elf/5.3.0/../../../../../H-x86_64-mingw32/nios2-elf/lib\libc.a(lib_a-callocr.o)
 .debug_ranges  0x0000000000000c08       0x50 x:/quartus/18.1/nios2eds/bin/gnu/h-x86_64-mingw32/bin/../lib/gcc/nios2-elf/5.3.0/../../../../../H-x86_64-mingw32/nios2-elf/lib\libc.a(lib_a-fputwc.o)
 .debug_ranges  0x0000000000000c58       0x18 x:/quartus/18.1/nios2eds/bin/gnu/h-x86_64-mingw32/bin/../lib/gcc/nios2-elf/5.3.0/../../../../../H-x86_64-mingw32/nios2-elf/lib\libc.a(lib_a-wcrtomb.o)
 .debug_ranges  0x0000000000000c70       0x18 x:/quartus/18.1/nios2eds/bin/gnu/h-x86_64-mingw32/bin/../lib/gcc/nios2-elf/5.3.0/../../../../../H-x86_64-mingw32/nios2-elf/lib\libc.a(lib_a-wctomb_r.o)
 .debug_ranges  0x0000000000000c88      0x158 x:/quartus/18.1/nios2eds/bin/gnu/h-x86_64-mingw32/bin/../lib/gcc/nios2-elf/5.3.0\libgcc.a(_udivdi3.o)
 .debug_ranges  0x0000000000000de0      0x160 x:/quartus/18.1/nios2eds/bin/gnu/h-x86_64-mingw32/bin/../lib/gcc/nios2-elf/5.3.0\libgcc.a(_umoddi3.o)
 .debug_ranges  0x0000000000000f40      0x240 x:/quartus/18.1/nios2eds/bin/gnu/h-x86_64-mingw32/bin/../lib/gcc/nios2-elf/5.3.0\libgcc.a(adddf3.o)
 .debug_ranges  0x0000000000001180      0x138 x:/quartus/18.1/nios2eds/bin/gnu/h-x86_64-mingw32/bin/../lib/gcc/nios2-elf/5.3.0\libgcc.a(divdf3.o)
 .debug_ranges  0x00000000000012b8       0x48 x:/quartus/18.1/nios2eds/bin/gnu/h-x86_64-mingw32/bin/../lib/gcc/nios2-elf/5.3.0\libgcc.a(eqdf2.o)
 .debug_ranges  0x0000000000001300       0x88 x:/quartus/18.1/nios2eds/bin/gnu/h-x86_64-mingw32/bin/../lib/gcc/nios2-elf/5.3.0\libgcc.a(gedf2.o)
 .debug_ranges  0x0000000000001388       0xa8 x:/quartus/18.1/nios2eds/bin/gnu/h-x86_64-mingw32/bin/../lib/gcc/nios2-elf/5.3.0\libgcc.a(ledf2.o)
 .debug_ranges  0x0000000000001430      0x1f0 x:/quartus/18.1/nios2eds/bin/gnu/h-x86_64-mingw32/bin/../lib/gcc/nios2-elf/5.3.0\libgcc.a(muldf3.o)
 .debug_ranges  0x0000000000001620      0x268 x:/quartus/18.1/nios2eds/bin/gnu/h-x86_64-mingw32/bin/../lib/gcc/nios2-elf/5.3.0\libgcc.a(subdf3.o)
 .debug_ranges  0x0000000000001888       0x30 x:/quartus/18.1/nios2eds/bin/gnu/h-x86_64-mingw32/bin/../lib/gcc/nios2-elf/5.3.0\libgcc.a(fixdfsi.o)
 .debug_ranges  0x00000000000018b8       0x20 x:/quartus/18.1/nios2eds/bin/gnu/h-x86_64-mingw32/bin/../lib/gcc/nios2-elf/5.3.0\libgcc.a(floatsidf.o)
 .debug_ranges  0x00000000000018d8       0x18 x:/quartus/18.1/nios2eds/bin/gnu/h-x86_64-mingw32/bin/../lib/gcc/nios2-elf/5.3.0\libgcc.a(floatunsidf.o)
 .debug_ranges  0x00000000000018f0       0x18 x:/quartus/18.1/nios2eds/bin/gnu/h-x86_64-mingw32/bin/../lib/gcc/nios2-elf/5.3.0\libgcc.a(_clzsi2.o)
 .debug_ranges  0x0000000000001908       0x30 C:/Users/test/Documents/EPFL/MA1/Embedded/Lab4/lab_4_V2/sw/lab4_cam1_bsp/\libhal_bsp.a(altera_avalon_jtag_uart_init.o)
 .debug_ranges  0x0000000000001938       0x18 C:/Users/test/Documents/EPFL/MA1/Embedded/Lab4/lab_4_V2/sw/lab4_cam1_bsp/\libhal_bsp.a(altera_avalon_jtag_uart_read.o)
 .debug_ranges  0x0000000000001950       0x28 C:/Users/test/Documents/EPFL/MA1/Embedded/Lab4/lab_4_V2/sw/lab4_cam1_bsp/\libhal_bsp.a(alt_irq_entry.o)
 .debug_ranges  0x0000000000001978       0x10 C:/Users/test/Documents/EPFL/MA1/Embedded/Lab4/lab_4_V2/sw/lab4_cam1_bsp/\libhal_bsp.a(alt_irq_handler.o)
 .debug_ranges  0x0000000000001988       0x30 C:/Users/test/Documents/EPFL/MA1/Embedded/Lab4/lab_4_V2/sw/lab4_cam1_bsp/\libhal_bsp.a(alt_exception_entry.o)
 .debug_ranges  0x00000000000019b8       0x18 C:/Users/test/Documents/EPFL/MA1/Embedded/Lab4/lab_4_V2/sw/lab4_cam1_bsp/\libhal_bsp.a(alt_instruction_exception_entry.o)
 .debug_ranges  0x00000000000019d0       0x10 x:/quartus/18.1/nios2eds/bin/gnu/h-x86_64-mingw32/bin/../lib/gcc/nios2-elf/5.3.0/../../../../../H-x86_64-mingw32/nios2-elf/lib\libc.a(lib_a-atexit.o)
 .debug_ranges  0x00000000000019e0       0x10 x:/quartus/18.1/nios2eds/bin/gnu/h-x86_64-mingw32/bin/../lib/gcc/nios2-elf/5.3.0/../../../../../H-x86_64-mingw32/nios2-elf/lib\libc.a(lib_a-exit.o)
 .debug_ranges  0x00000000000019f0       0x10 x:/quartus/18.1/nios2eds/bin/gnu/h-x86_64-mingw32/bin/../lib/gcc/nios2-elf/5.3.0/../../../../../H-x86_64-mingw32/nios2-elf/lib\libc.a(lib_a-memcmp.o)
 .debug_ranges  0x0000000000001a00       0x10 x:/quartus/18.1/nios2eds/bin/gnu/h-x86_64-mingw32/bin/../lib/gcc/nios2-elf/5.3.0/../../../../../H-x86_64-mingw32/nios2-elf/lib\libc.a(lib_a-__atexit.o)
 .debug_ranges  0x0000000000001a10       0x30 x:/quartus/18.1/nios2eds/bin/gnu/h-x86_64-mingw32/bin/../lib/gcc/nios2-elf/5.3.0/../../../../../H-x86_64-mingw32/nios2-elf/lib\libc.a(lib_a-__call_atexit.o)
